(lp1
(iplayerTypes
fPlayer
p2
(dp3
S'bench'
p4
(lp5
(iplayerTypes
tPlayer
p6
(dp7
S'name'
p8
S'Dominic Thiem'
p9
sS'attribute'
p10
I3
sS'alive'
p11
I0
sS'sex'
p12
S'm'
sS'points'
p13
I78
sS'history'
p14
(lp15
(S'1/16/2017'
p16
S'DNP'
p17
tp18
a(S'1/17/2017'
p19
S'(39)'
tp20
a(S'1/18/2017'
p21
S'DNP'
p22
tp23
a(S'1/19/2017'
p24
S'(43)'
tp25
a(S'1/20/2017'
p26
S'DNP'
p27
tp28
a(S'1/21/2017'
p29
I45
tp30
a(S'1/22/2017'
p31
S'DNP'
p32
tp33
a(S'1/23/2017'
p34
I33
tp35
a(S'1/24/2017'
p36
S'OUT'
p37
tp38
a(S'1/25/2017'
p39
S'OUT'
p40
tp41
a(S'1/26/2017'
p42
S'OUT'
p43
tp44
a(S'1/27/2017'
p45
S'OUT'
p46
tp47
a(S'1/27/2017'
p48
S'OUT'
p49
tp50
a(S'1/29/2017'
p51
S'OUT'
p52
tp53
a(S'1/29/2017'
p54
S'OUT'
p55
tp56
asba(iplayerTypes
tPlayer
p57
(dp58
g8
S'Angelique Kerber'
p59
sg10
I4
sg11
I0
sg12
S'f'
sg13
I151
sg14
(lp60
(g16
S'(64)'
tp61
a(g19
S'DNP'
p62
tp63
a(g21
I51
tp64
a(g24
S'DNP'
p65
tp66
a(g26
I61
tp67
a(g29
S'DNP'
p68
tp69
a(g31
I39
tp70
a(g34
S'OUT'
p71
tp72
a(g36
g37
tp73
a(g39
g40
tp74
a(g42
g43
tp75
a(g45
g46
tp76
a(g48
g49
tp77
a(g51
g52
tp78
a(g54
g55
tp79
asbasS'total'
p80
I1488
sg8
S'Santay'
p81
sS'team'
p82
(lp83
(iplayerTypes
tPlayer
p84
(dp85
g8
S'Milos Raonic'
p86
sg10
I1
sg11
I0
sg12
S'm'
sg13
I255
sg14
(lp87
(g16
g17
tp88
a(g19
I39
tp89
a(g21
g22
tp90
a(g24
I54
tp91
a(g26
g27
tp92
a(g29
I54
tp93
a(g31
g32
tp94
a(g34
I72
tp95
a(g36
S'DNP'
p96
tp97
a(g39
I36
tp98
a(g42
g43
tp99
a(g45
g46
tp100
a(g48
g49
tp101
a(g51
g52
tp102
a(g54
g55
tp103
asba(iplayerTypes
tPlayer
p104
(dp105
g8
S'Roger Federer'
p106
sg10
I2
sg11
I1
sg12
S'm'
sg13
I543
sg14
(lp107
(g16
I56
tp108
a(g19
g62
tp109
a(g21
I55
tp110
a(g24
g65
tp111
a(g26
I63
tp112
a(g29
g68
tp113
a(g31
I119
tp114
a(g34
S'DNP'
p115
tp116
a(g36
I117
tp117
a(g39
S'DNP'
p118
tp119
a(g42
I44
tp120
a(g45
S'DNP'
p121
tp122
a(g48
S'DNP'
p123
tp124
a(g51
S'DNP'
p125
tp126
a(g54
I89
tp127
asba(iplayerTypes
tPlayer
p128
(dp129
g8
S'Rafael Nadal'
p130
sg10
I3
sg11
I0
sg12
S'm'
sg13
I158
sg14
(lp131
(g16
g17
tp132
a(g19
I38
tp133
a(g21
g22
tp134
a(g24
I50
tp135
a(g26
g27
tp136
a(g29
S'(40)'
tp137
a(g31
g32
tp138
a(g34
S'(43)'
tp139
a(g36
g96
tp140
a(g39
S'(36)'
tp141
a(g42
S'DNP'
p142
tp143
a(g45
g121
tp144
a(g48
I36
tp145
a(g51
g125
tp146
a(g54
I34
tp147
asba(iplayerTypes
tPlayer
p148
(dp149
g8
S'Grigor Dimitrov'
p150
sg10
I4
sg11
I0
sg12
S'm'
sg13
I111
sg14
(lp151
(g16
g17
tp152
a(g19
I62
tp153
a(g21
g22
tp154
a(g24
S'(54)'
tp155
a(g26
g27
tp156
a(g29
S'(35)'
tp157
a(g31
g32
tp158
a(g34
S'(62)'
tp159
a(g36
g96
tp160
a(g39
S'(43)'
tp161
a(g42
g142
tp162
a(g45
g121
tp163
a(g48
I49
tp164
a(g51
g52
tp165
a(g54
g55
tp166
asba(iplayerTypes
tPlayer
p167
(dp168
g8
S'Kei Nishikori'
p169
sg10
I5
sg11
I0
sg12
S'm'
sg13
I192
sg14
(lp170
(g16
I65
tp171
a(g19
g62
tp172
a(g21
I56
tp173
a(g24
g65
tp174
a(g26
I22
tp175
a(g29
g68
tp176
a(g31
I49
tp177
a(g34
g71
tp178
a(g36
g37
tp179
a(g39
g40
tp180
a(g42
g43
tp181
a(g45
g46
tp182
a(g48
g49
tp183
a(g51
g52
tp184
a(g54
g55
tp185
asbasba(iplayerTypes
fPlayer
p186
(dp187
g4
(lp188
(iplayerTypes
tPlayer
p189
(dp190
g8
S'Nick Kyrgios'
p191
sg10
I1
sg11
I0
sg12
S'm'
sg13
I15
sg14
(lp192
(g16
I15
tp193
a(g19
g62
tp194
a(g21
S'(60)'
tp195
a(g24
S'OUT'
p196
tp197
a(g26
S'OUT'
p198
tp199
a(g29
S'OUT'
p200
tp201
a(g31
S'OUT'
p202
tp203
a(g34
g71
tp204
a(g36
g37
tp205
a(g39
g40
tp206
a(g42
g43
tp207
a(g45
g46
tp208
a(g48
g49
tp209
a(g51
g52
tp210
a(g54
g55
tp211
asba(iplayerTypes
tPlayer
p212
(dp213
g8
S'John Isner'
p214
sg10
I2
sg11
I0
sg12
S'm'
sg13
I229
sg14
(lp215
(g16
I98
tp216
a(g19
g62
tp217
a(g21
I131
tp218
a(g24
g196
tp219
a(g26
g198
tp220
a(g29
g200
tp221
a(g31
g202
tp222
a(g34
g71
tp223
a(g36
g37
tp224
a(g39
g40
tp225
a(g42
g43
tp226
a(g45
g46
tp227
a(g48
g49
tp228
a(g51
g52
tp229
a(g54
g55
tp230
asba(iplayerTypes
tPlayer
p231
(dp232
g8
S'Novak Djokovic'
p233
sg10
I5
sg11
I0
sg12
S'm'
sg13
I107
sg14
(lp234
(g16
g17
tp235
a(g19
I39
tp236
a(g21
g22
tp237
a(g24
I68
tp238
a(g26
g198
tp239
a(g29
g200
tp240
a(g31
g202
tp241
a(g34
g71
tp242
a(g36
g37
tp243
a(g39
g40
tp244
a(g42
g43
tp245
a(g45
g46
tp246
a(g48
g49
tp247
a(g51
g52
tp248
a(g54
g55
tp249
asbasg80
I1421
sg8
S'Ben'
p250
sg82
(lp251
(iplayerTypes
tPlayer
p252
(dp253
g8
S'Roger Federer'
p254
sg10
I1
sg11
I1
sg12
S'm'
sg13
I216
sg14
(lp255
(g16
S'(54)'
tp256
a(g19
g62
tp257
a(g21
I45
tp258
a(g24
g65
tp259
a(g26
I18
tp260
a(g29
g68
tp261
a(g31
I54
tp262
a(g34
g115
tp263
a(g36
I24
tp264
a(g39
g118
tp265
a(g42
I24
tp266
a(g45
g121
tp267
a(g48
g123
tp268
a(g51
g125
tp269
a(g54
I51
tp270
asba(iplayerTypes
tPlayer
p271
(dp272
g8
S'Andy Murray'
p273
sg10
I2
sg11
I0
sg12
S'm'
sg13
I172
sg14
(lp274
(g16
S'(23)'
tp275
a(g19
g62
tp276
a(g21
S'(36)'
tp277
a(g24
g65
tp278
a(g26
I58
tp279
a(g29
g68
tp280
a(g31
I114
tp281
a(g34
g71
tp282
a(g36
g37
tp283
a(g39
g40
tp284
a(g42
g43
tp285
a(g45
g46
tp286
a(g48
g49
tp287
a(g51
g52
tp288
a(g54
g55
tp289
asba(iplayerTypes
tPlayer
p290
(dp291
g8
S'Angelique Kerber'
p292
sg10
I3
sg11
I0
sg12
S'f'
sg13
I177
sg14
(lp293
(g16
I43
tp294
a(g19
g62
tp295
a(g21
I47
tp296
a(g24
g65
tp297
a(g26
I53
tp298
a(g29
g68
tp299
a(g31
I34
tp300
a(g34
g71
tp301
a(g36
g37
tp302
a(g39
g40
tp303
a(g42
g43
tp304
a(g45
g46
tp305
a(g48
g49
tp306
a(g51
g52
tp307
a(g54
g55
tp308
asba(iplayerTypes
tPlayer
p309
(dp310
g8
S'Stan Wawrinka'
p311
sg10
I4
sg11
I0
sg12
S'm'
sg13
I357
sg14
(lp312
(g16
I47
tp313
a(g19
g62
tp314
a(g21
I56
tp315
a(g24
g65
tp316
a(g26
I52
tp317
a(g29
g68
tp318
a(g31
I67
tp319
a(g34
g115
tp320
a(g36
I65
tp321
a(g39
g118
tp322
a(g42
I70
tp323
a(g45
g46
tp324
a(g48
g49
tp325
a(g51
g52
tp326
a(g54
g55
tp327
asba(iplayerTypes
tPlayer
p328
(dp329
g8
S'Grigor Dimitrov'
p330
sg10
I5
sg11
I0
sg12
S'm'
sg13
I148
sg14
(lp331
(S'0/0/0'
S'(-)'
tp332
ag332
ag332
ag332
ag332
ag332
a(g31
g32
tp333
a(g34
I39
tp334
a(g36
g96
tp335
a(g39
I64
tp336
a(g42
g142
tp337
a(g45
g121
tp338
a(g48
I45
tp339
a(g51
g52
tp340
a(g54
g55
tp341
asbasba(iplayerTypes
fPlayer
p342
(dp343
g4
(lp344
(iplayerTypes
tPlayer
p345
(dp346
g8
S'Novak Djokovic'
p347
sg10
I2
sg11
I0
sg12
S'm'
sg13
I0
sg14
(lp348
(g16
g17
tp349
a(g19
S'(14)'
tp350
a(g21
g22
tp351
a(g24
S'(64)'
tp352
a(g26
g198
tp353
a(g29
g200
tp354
a(g31
g202
tp355
a(g34
g71
tp356
a(g36
g37
tp357
a(g39
g40
tp358
a(g42
g43
tp359
a(g45
g46
tp360
a(g48
g49
tp361
a(g51
g52
tp362
a(g54
g55
tp363
asba(iplayerTypes
tPlayer
p364
(dp365
g8
S'Tomas Berdych'
p366
sg10
I2
sg11
I0
sg12
S'm'
sg13
I38
sg14
(lp367
(g16
S'(10)'
tp368
a(g19
g62
tp369
a(g21
S'(43)'
tp370
a(g24
g65
tp371
a(g26
I38
tp372
a(g29
g200
tp373
a(g31
g202
tp374
a(g34
g71
tp375
a(g36
g37
tp376
a(g39
g40
tp377
a(g42
g43
tp378
a(g45
g46
tp379
a(g48
g49
tp380
a(g51
g52
tp381
a(g54
g55
tp382
asba(iplayerTypes
tPlayer
p383
(dp384
g8
S'Marin Cilic'
p385
sg10
I2
sg11
I0
sg12
S'm'
sg13
I146
sg14
(lp386
(g16
I105
tp387
a(g19
g62
tp388
a(g21
I41
tp389
a(g24
g196
tp390
a(g26
g198
tp391
a(g29
g200
tp392
a(g31
g202
tp393
a(g34
g71
tp394
a(g36
g37
tp395
a(g39
g40
tp396
a(g42
g43
tp397
a(g45
g46
tp398
a(g48
g49
tp399
a(g51
g52
tp400
a(g54
g55
tp401
asbasg80
I1341
sg8
S'Steve'
p402
sg82
(lp403
(iplayerTypes
tPlayer
p404
(dp405
g8
S'Ivo Karlovic'
p406
sg10
I1
sg11
I0
sg12
S'm'
sg13
I291
sg14
(lp407
(g16
g17
tp408
a(g19
I189
tp409
a(g21
g22
tp410
a(g24
I36
tp411
a(g26
g27
tp412
a(g29
I66
tp413
a(g31
g202
tp414
a(g34
g71
tp415
a(g36
g37
tp416
a(g39
g40
tp417
a(g42
g43
tp418
a(g45
g46
tp419
a(g48
g49
tp420
a(g51
g52
tp421
a(g54
g55
tp422
asba(iplayerTypes
tPlayer
p423
(dp424
g8
S'Jo-Wilfried Tsonga'
p425
sg10
I2
sg11
I0
sg12
S'm'
sg13
I104
sg14
(lp426
(S'0/0/0'
S'(-)'
tp427
ag427
ag427
ag427
ag427
ag427
a(g31
I89
tp428
a(g34
g115
tp429
a(g36
I15
tp430
a(g39
g40
tp431
a(g42
g43
tp432
a(g45
g46
tp433
a(g48
g49
tp434
a(g51
g52
tp435
a(g54
g55
tp436
asba(iplayerTypes
tPlayer
p437
(dp438
g8
S'Serena Williams'
p439
sg10
I3
sg11
I1
sg12
S'f'
sg13
I337
sg14
(lp440
(g16
g17
tp441
a(g19
I46
tp442
a(g21
g22
tp443
a(g24
I38
tp444
a(g26
g27
tp445
a(g29
I54
tp446
a(g31
g32
tp447
a(g34
I51
tp448
a(g36
g96
tp449
a(g39
I48
tp450
a(g42
I55
tp451
a(g45
g121
tp452
a(g48
g123
tp453
a(g51
I45
tp454
a(g54
S'DNP'
tp455
asba(iplayerTypes
tPlayer
p456
(dp457
g8
S'Milos Raonic'
p458
sg10
I4
sg11
I0
sg12
S'm'
sg13
I286
sg14
(lp459
(g16
g17
tp460
a(g19
I62
tp461
a(g21
g22
tp462
a(g24
I59
tp463
a(g26
g27
tp464
a(g29
I61
tp465
a(g31
g32
tp466
a(g34
I48
tp467
a(g36
g96
tp468
a(g39
I56
tp469
a(g42
g43
tp470
a(g45
g46
tp471
a(g48
g49
tp472
a(g51
g52
tp473
a(g54
g55
tp474
asba(iplayerTypes
tPlayer
p475
(dp476
g8
S'Andy Murray'
p477
sg10
I5
sg11
I0
sg12
S'm'
sg13
I139
sg14
(lp478
(g16
I31
tp479
a(g19
g62
tp480
a(g21
I30
tp481
a(g24
g65
tp482
a(g26
I32
tp483
a(g29
g68
tp484
a(g31
I46
tp485
a(g34
g71
tp486
a(g36
g37
tp487
a(g39
g40
tp488
a(g42
g43
tp489
a(g45
g46
tp490
a(g48
g49
tp491
a(g51
g52
tp492
a(g54
g55
tp493
asbasba(iplayerTypes
fPlayer
p494
(dp495
g4
(lp496
(iplayerTypes
tPlayer
p497
(dp498
g8
S'Marin Cilic'
p499
sg10
I1
sg11
I0
sg12
S'm'
sg13
I84
sg14
(lp500
(g16
I54
tp501
a(g19
g62
tp502
a(g21
I30
tp503
a(g24
g196
tp504
a(g26
g198
tp505
a(g29
g200
tp506
a(g31
g202
tp507
a(g34
g71
tp508
a(g36
g37
tp509
a(g39
g40
tp510
a(g42
g43
tp511
a(g45
g46
tp512
a(g48
g49
tp513
a(g51
g52
tp514
a(g54
g55
tp515
asba(iplayerTypes
tPlayer
p516
(dp517
g8
S'Novak Djokovic'
p518
sg10
I4
sg11
I0
sg12
S'm'
sg13
I105
sg14
(lp519
(g16
g17
tp520
a(g19
I50
tp521
a(g21
g22
tp522
a(g24
I55
tp523
a(g26
g198
tp524
a(g29
g200
tp525
a(g31
g202
tp526
a(g34
g71
tp527
a(g36
g37
tp528
a(g39
g40
tp529
a(g42
g43
tp530
a(g45
g46
tp531
a(g48
g49
tp532
a(g51
g52
tp533
a(g54
g55
tp534
asba(iplayerTypes
tPlayer
p535
(dp536
g8
S'Stan Wawrinka'
p537
sg10
I5
sg11
I0
sg12
S'm'
sg13
I234
sg14
(lp538
(g16
I70
tp539
a(g19
g62
tp540
a(g21
I40
tp541
a(g24
g65
tp542
a(g26
I40
tp543
a(g29
g68
tp544
a(g31
I14
tp545
a(g34
g115
tp546
a(g36
I37
tp547
a(g39
g118
tp548
a(g42
I33
tp549
a(g45
g46
tp550
a(g48
g49
tp551
a(g51
g52
tp552
a(g54
g55
tp553
asbasg80
I1212
sg8
S'Geoff'
p554
sg82
(lp555
(iplayerTypes
tPlayer
p556
(dp557
g8
S'Jo-Wilfried Tsonga'
p558
sg10
I1
sg11
I0
sg12
S'm'
sg13
I111
sg14
(lp559
(g16
S'(45)'
tp560
a(g19
g62
tp561
a(g21
S'(39)'
tp562
a(g24
g65
tp563
a(g26
I54
tp564
a(g29
g68
tp565
a(g31
I45
tp566
a(g34
g115
tp567
a(g36
I12
tp568
a(g39
g40
tp569
a(g42
g43
tp570
a(g45
g46
tp571
a(g48
g49
tp572
a(g51
g52
tp573
a(g54
g55
tp574
asba(iplayerTypes
tPlayer
p575
(dp576
g8
S'Milos Raonic'
p577
sg10
I2
sg11
I0
sg12
S'm'
sg13
I381
sg14
(lp578
(g16
g17
tp579
a(g19
I67
tp580
a(g21
g22
tp581
a(g24
I97
tp582
a(g26
g27
tp583
a(g29
I76
tp584
a(g31
g32
tp585
a(g34
I95
tp586
a(g36
g96
tp587
a(g39
I46
tp588
a(g42
g43
tp589
a(g45
g46
tp590
a(g48
g49
tp591
a(g51
g52
tp592
a(g54
g55
tp593
asba(iplayerTypes
tPlayer
p594
(dp595
g8
S'Andy Murray'
p596
sg10
I3
sg11
I0
sg12
S'm'
sg13
I180
sg14
(lp597
(g16
I45
tp598
a(g19
g62
tp599
a(g21
I49
tp600
a(g24
g65
tp601
a(g26
I45
tp602
a(g29
g68
tp603
a(g31
I41
tp604
a(g34
g71
tp605
a(g36
g37
tp606
a(g39
g40
tp607
a(g42
g43
tp608
a(g45
g46
tp609
a(g48
g49
tp610
a(g51
g52
tp611
a(g54
g55
tp612
asba(iplayerTypes
tPlayer
p613
(dp614
g8
S'Dominic Thiem'
p615
sg10
I4
sg11
I0
sg12
S'm'
sg13
I45
sg14
(lp616
(S'0/0/0'
S'(-)'
tp617
ag617
ag617
ag617
ag617
ag617
a(g31
g32
tp618
a(g34
I45
tp619
a(g36
g37
tp620
a(g39
g40
tp621
a(g42
g43
tp622
a(g45
g46
tp623
a(g48
g49
tp624
a(g51
g52
tp625
a(g54
g55
tp626
asba(iplayerTypes
tPlayer
p627
(dp628
g8
S'Rafael Nadal'
p629
sg10
I5
sg11
I0
sg12
S'm'
sg13
I72
sg14
(lp630
(g16
g17
tp631
a(g19
S'(15)'
tp632
a(g21
g22
tp633
a(g24
S'(47)'
tp634
a(g26
g27
tp635
a(g29
S'(44)'
tp636
a(g31
g32
tp637
a(g34
S'(36)'
tp638
a(g36
g96
tp639
a(g39
S'(30)'
tp640
a(g42
g142
tp641
a(g45
g121
tp642
a(g48
S'(73)'
tp643
a(g51
g125
tp644
a(g54
I72
tp645
asbasba(iplayerTypes
fPlayer
p646
(dp647
g4
(lp648
(iplayerTypes
tPlayer
p649
(dp650
g8
S'Gael Monfils'
p651
sg10
I2
sg11
I0
sg12
S'm'
sg13
I0
sg14
(lp652
(g16
g17
tp653
a(g19
S'(47)'
tp654
a(g21
g22
tp655
a(g24
S'(42)'
tp656
a(g26
g27
tp657
a(g29
S'(25)'
tp658
a(g31
g32
tp659
a(g34
S'(40)'
tp660
a(g36
g37
tp661
a(g39
g40
tp662
a(g42
g43
tp663
a(g45
g46
tp664
a(g48
g49
tp665
a(g51
g52
tp666
a(g54
g55
tp667
asba(iplayerTypes
tPlayer
p668
(dp669
g8
S'John Isner'
p670
sg10
I1
sg11
I0
sg12
S'm'
sg13
I168
sg14
(lp671
(g16
I81
tp672
a(g19
g62
tp673
a(g21
I87
tp674
a(g24
g196
tp675
a(g26
g198
tp676
a(g29
g200
tp677
a(g31
g202
tp678
a(g34
g71
tp679
a(g36
g37
tp680
a(g39
g40
tp681
a(g42
g43
tp682
a(g45
g46
tp683
a(g48
g49
tp684
a(g51
g52
tp685
a(g54
g55
tp686
asba(iplayerTypes
tPlayer
p687
(dp688
g8
S'Novak Djokovic'
p689
sg10
I3
sg11
I0
sg12
S'm'
sg13
I88
sg14
(lp690
(g16
g17
tp691
a(g19
I50
tp692
a(g21
g22
tp693
a(g24
I38
tp694
a(g26
g198
tp695
a(g29
g200
tp696
a(g31
g202
tp697
a(g34
g71
tp698
a(g36
g37
tp699
a(g39
g40
tp700
a(g42
g43
tp701
a(g45
g46
tp702
a(g48
g49
tp703
a(g51
g52
tp704
a(g54
g55
tp705
asbasg80
I1202
sg8
S'Jack'
p706
sg82
(lp707
(iplayerTypes
tPlayer
p708
(dp709
g8
S'Dominic Thiem'
p710
sg10
I1
sg11
I0
sg12
S'm'
sg13
I45
sg14
(lp711
(g16
g17
tp712
a(g19
S'(47)'
tp713
a(g21
g22
tp714
a(g24
S'(24)'
tp715
a(g26
g27
tp716
a(g29
I21
tp717
a(g31
g32
tp718
a(g34
I24
tp719
a(g36
g37
tp720
a(g39
g40
tp721
a(g42
g43
tp722
a(g45
g46
tp723
a(g48
g49
tp724
a(g51
g52
tp725
a(g54
g55
tp726
asba(iplayerTypes
tPlayer
p727
(dp728
g8
S'Stan Wawrinka'
p729
sg10
I2
sg11
I0
sg12
S'm'
sg13
I362
sg14
(lp730
(g16
I77
tp731
a(g19
g62
tp732
a(g21
I67
tp733
a(g24
g65
tp734
a(g26
I44
tp735
a(g29
g68
tp736
a(g31
I65
tp737
a(g34
g115
tp738
a(g36
I54
tp739
a(g39
g118
tp740
a(g42
I55
tp741
a(g45
g46
tp742
a(g48
g49
tp743
a(g51
g52
tp744
a(g54
g55
tp745
asba(iplayerTypes
tPlayer
p746
(dp747
g8
S'Kei Nishikori'
p748
sg10
I3
sg11
I0
sg12
S'm'
sg13
I30
sg14
(lp749
(S'0/0/0'
S'(-)'
tp750
ag750
ag750
ag750
ag750
ag750
a(g31
I30
tp751
a(g34
g71
tp752
a(g36
g37
tp753
a(g39
g40
tp754
a(g42
g43
tp755
a(g45
g46
tp756
a(g48
g49
tp757
a(g51
g52
tp758
a(g54
g55
tp759
asba(iplayerTypes
tPlayer
p760
(dp761
g8
S'Andy Murray'
p762
sg10
I4
sg11
I0
sg12
S'm'
sg13
I197
sg14
(lp763
(g16
I43
tp764
a(g19
g62
tp765
a(g21
I68
tp766
a(g24
g65
tp767
a(g26
I50
tp768
a(g29
g68
tp769
a(g31
I36
tp770
a(g34
g71
tp771
a(g36
g37
tp772
a(g39
g40
tp773
a(g42
g43
tp774
a(g45
g46
tp775
a(g48
g49
tp776
a(g51
g52
tp777
a(g54
g55
tp778
asba(iplayerTypes
tPlayer
p779
(dp780
g8
S'Roger Federer'
p781
sg10
I5
sg11
I1
sg12
S'm'
sg13
I312
sg14
(lp782
(g16
I31
tp783
a(g19
g62
tp784
a(g21
I37
tp785
a(g24
g65
tp786
a(g26
I20
tp787
a(g29
g68
tp788
a(g31
I61
tp789
a(g34
g115
tp790
a(g36
I32
tp791
a(g39
g118
tp792
a(g42
I48
tp793
a(g45
g121
tp794
a(g48
g123
tp795
a(g51
g125
tp796
a(g54
I83
tp797
asbasba.