(lp1
(iplayerTypes
fPlayer
p2
(dp3
S'bench'
p4
(lp5
(iplayerTypes
tPlayer
p6
(dp7
S'name'
p8
S'Grigor Dimitrov'
p9
sS'attribute'
p10
I3
sS'alive'
p11
I1
sS'sex'
p12
S'm'
sS'points'
p13
I0
sS'history'
p14
(lp15
(S'1/1/2017'
p16
S'DNP'
p17
tp18
a(S'1/2/2017'
p19
S'(51)'
tp20
a(S'1/3/2017'
p21
S'DNP'
p22
tp23
a(S'1/4/2017'
p24
S'DNP'
p25
tp26
a(S'1/5/2017'
p27
S'(40)'
tp28
a(S'1/6/2017'
p29
S'(35)'
tp30
a(S'1/7/2017'
p31
S'(34)'
tp32
asba(iplayerTypes
tPlayer
p33
(dp34
g8
S'Stan Wawrinka'
p35
sg10
I2
sg11
I0
sg12
S'm'
sg13
I0
sg14
(lp36
(g16
g17
tp37
a(g19
S'DNP'
p38
tp39
a(g21
g22
tp40
a(g24
S'(27)'
tp41
a(g27
S'DNP'
p42
tp43
a(g29
S'(59)'
tp44
a(g31
S'(39)'
tp45
asbasS'total'
p46
I319
sg8
S'Ben'
p47
sS'team'
p48
(lp49
(iplayerTypes
tPlayer
p50
(dp51
g8
S'Bernard Tomic'
p52
sg10
I1
sg11
I0
sg12
S'm'
sg13
I-9
sg14
(lp53
(g16
g17
tp54
a(g19
I-9
tp55
a(g21
S'OUT'
p56
tp57
a(g24
S'OUT'
p58
tp59
a(g27
S'OUT'
p60
tp61
a(g29
S'OUT'
p62
tp63
a(g31
S'OUT'
p64
tp65
asba(iplayerTypes
tPlayer
p66
(dp67
g8
S'Nicolas Mahut'
p68
sg10
I2
sg11
I0
sg12
S'm'
sg13
I78
sg14
(lp69
(g16
g17
tp70
a(g19
I39
tp71
a(g21
g22
tp72
a(g24
g25
tp73
a(g27
I39
tp74
a(g29
g62
tp75
a(g31
g64
tp76
asba(iplayerTypes
tPlayer
p77
(dp78
g8
S'Stephane Robert'
p79
sg10
I3
sg11
I0
sg12
S'm'
sg13
I31
sg14
(lp80
(g16
g17
tp81
a(g19
I31
tp82
a(g21
g56
tp83
a(g24
g58
tp84
a(g27
g60
tp85
a(g29
g62
tp86
a(g31
g64
tp87
asba(iplayerTypes
tPlayer
p88
(dp89
g8
S'Milos Raonic'
p90
sg10
I4
sg11
I0
sg12
S'm'
sg13
I148
sg14
(lp91
(g16
g17
tp92
a(g19
g38
tp93
a(g21
g22
tp94
a(g24
g25
tp95
a(g27
I54
tp96
a(g29
I46
tp97
a(g31
I48
tp98
asba(iplayerTypes
tPlayer
p99
(dp100
g8
S'Rafael Nadal'
p101
sg10
I5
sg11
I0
sg12
S'm'
sg13
I71
sg14
(lp102
(g16
g17
tp103
a(g19
g38
tp104
a(g21
I27
tp105
a(g24
g25
tp106
a(g27
I35
tp107
a(g29
I9
tp108
a(g31
g64
tp109
asbasba(iplayerTypes
fPlayer
p110
(dp111
g4
(lp112
(iplayerTypes
tPlayer
p113
(dp114
g8
S'Stan Wawrinka'
p115
sg10
I4
sg11
I0
sg12
S'm'
sg13
I0
sg14
(lp116
(g16
g17
tp117
a(g19
g38
tp118
a(g21
g22
tp119
a(g24
S'(65)'
tp120
a(g27
g42
tp121
a(g29
S'(54)'
tp122
a(g31
S'(42)'
tp123
asba(iplayerTypes
tPlayer
p124
(dp125
g8
S'Grigor Dimitrov'
p126
sg10
I2
sg11
I1
sg12
S'm'
sg13
I0
sg14
(lp127
(g16
g17
tp128
a(g19
S'(26)'
tp129
a(g21
g22
tp130
a(g24
g25
tp131
a(g27
S'(19)'
tp132
a(g29
S'(28)'
tp133
a(g31
S'(29)'
tp134
asbasg46
I362
sg8
S'Santay'
p135
sg48
(lp136
(iplayerTypes
tPlayer
p137
(dp138
g8
S'Milos Raonic'
p139
sg10
I1
sg11
I0
sg12
S'm'
sg13
I96
sg14
(lp140
(g16
g17
tp141
a(g19
g38
tp142
a(g21
g22
tp143
a(g24
g25
tp144
a(g27
I33
tp145
a(g29
I60
tp146
a(g31
I3
tp147
asba(iplayerTypes
tPlayer
p148
(dp149
g8
S'Sam Querrey'
p150
sg10
I2
sg11
I0
sg12
S'm'
sg13
I19
sg14
(lp151
(g16
g17
tp152
a(g19
g38
tp153
a(g21
I19
tp154
a(g24
g58
tp155
a(g27
g60
tp156
a(g29
g62
tp157
a(g31
g64
tp158
asba(iplayerTypes
tPlayer
p159
(dp160
g8
S'David Ferrer'
p161
sg10
I3
sg11
I0
sg12
S'm'
sg13
I80
sg14
(lp162
(g16
g17
tp163
a(g19
I45
tp164
a(g21
g22
tp165
a(g24
I35
tp166
a(g27
g60
tp167
a(g29
g62
tp168
a(g31
g64
tp169
asba(iplayerTypes
tPlayer
p170
(dp171
g8
S'Nicolas Mahut'
p172
sg10
I4
sg11
I0
sg12
S'm'
sg13
I82
sg14
(lp173
(g16
g17
tp174
a(g19
I55
tp175
a(g21
g22
tp176
a(g24
g25
tp177
a(g27
I27
tp178
a(g29
g62
tp179
a(g31
g64
tp180
asba(iplayerTypes
tPlayer
p181
(dp182
g8
S'Kei Nishikori'
p183
sg10
I5
sg11
I1
sg12
S'm'
sg13
I85
sg14
(lp184
(g16
g17
tp185
a(g19
g38
tp186
a(g21
g22
tp187
a(g24
I33
tp188
a(g27
g42
tp189
a(g29
I25
tp190
a(g31
I27
tp191
asbasba.