(lp1
(iplayerTypes
fPlayer
p2
(dp3
S'bench'
p4
(lp5
(iplayerTypes
tPlayer
p6
(dp7
S'name'
p8
S'Stan Wawrinka'
p9
sS'attribute'
p10
I2
sS'alive'
p11
I1
sS'sex'
p12
S'm'
sS'points'
p13
I0
sS'history'
p14
(lp15
(S'1/2/2017'
p16
S'DNP'
p17
tp18
a(S'1/3/2017'
p19
S'DNP'
p20
tp21
a(S'1/4/2017'
p22
S'(58)'
tp23
a(S'1/5/2017'
p24
S'DNP'
p25
tp26
asba(iplayerTypes
tPlayer
p27
(dp28
g8
S'Grigor Dimitrov'
p29
sg10
I3
sg11
I1
sg12
S'm'
sg13
I0
sg14
(lp30
(g16
S'(51)'
tp31
a(g19
g20
tp32
a(g22
S'DNP'
p33
tp34
a(g24
S'(40)'
tp35
asbasS'total'
p36
I196
sg8
S'Ben'
p37
sS'team'
p38
(lp39
(iplayerTypes
tPlayer
p40
(dp41
g8
S'Bernard Tomic'
p42
sg10
I1
sg11
I0
sg12
S'm'
sg13
I-9
sg14
(lp43
(g16
I-9
tp44
a(g19
S'OUT'
p45
tp46
a(g22
S'OUT'
p47
tp48
a(g24
S'OUT'
p49
tp50
asba(iplayerTypes
tPlayer
p51
(dp52
g8
S'Nicolas Mahut'
p53
sg10
I2
sg11
I0
sg12
S'm'
sg13
I58
sg14
(lp54
(g16
I39
tp55
a(g19
g20
tp56
a(g22
g33
tp57
a(g24
I19
tp58
asba(iplayerTypes
tPlayer
p59
(dp60
g8
S'Stephane Robert'
p61
sg10
I3
sg11
I0
sg12
S'm'
sg13
I31
sg14
(lp62
(g16
I31
tp63
a(g19
g45
tp64
a(g22
g47
tp65
a(g24
g49
tp66
asba(iplayerTypes
tPlayer
p67
(dp68
g8
S'Milos Raonic'
p69
sg10
I4
sg11
I1
sg12
S'm'
sg13
I54
sg14
(lp70
(g16
g17
tp71
a(g19
g20
tp72
a(g22
g33
tp73
a(g24
I54
tp74
asba(iplayerTypes
tPlayer
p75
(dp76
g8
S'Rafael Nadal'
p77
sg10
I5
sg11
I1
sg12
S'm'
sg13
I62
sg14
(lp78
(g16
g17
tp79
a(g19
I27
tp80
a(g22
g33
tp81
a(g24
I35
tp82
asbasba(iplayerTypes
fPlayer
p83
(dp84
g4
(lp85
(iplayerTypes
tPlayer
p86
(dp87
g8
S'Stan Wawrinka'
p88
sg10
I4
sg11
I1
sg12
S'm'
sg13
I0
sg14
(lp89
(g16
g17
tp90
a(g19
g20
tp91
a(g22
S'(65)'
tp92
a(g24
g25
tp93
asba(iplayerTypes
tPlayer
p94
(dp95
g8
S'Grigor Dimitrov'
p96
sg10
I2
sg11
I1
sg12
S'm'
sg13
I0
sg14
(lp97
(g16
S'(28)'
tp98
a(g19
g20
tp99
a(g22
g33
tp100
a(g24
S'(38)'
tp101
asbasg36
I247
sg8
S'Santay'
p102
sg38
(lp103
(iplayerTypes
tPlayer
p104
(dp105
g8
S'Milos Raonic'
p106
sg10
I1
sg11
I1
sg12
S'm'
sg13
I33
sg14
(lp107
(g16
g17
tp108
a(g19
g20
tp109
a(g22
g33
tp110
a(g24
I33
tp111
asba(iplayerTypes
tPlayer
p112
(dp113
g8
S'Sam Querrey'
p114
sg10
I2
sg11
I0
sg12
S'm'
sg13
I19
sg14
(lp115
(g16
g17
tp116
a(g19
I19
tp117
a(g22
g47
tp118
a(g24
g49
tp119
asba(iplayerTypes
tPlayer
p120
(dp121
g8
S'David Ferrer'
p122
sg10
I3
sg11
I0
sg12
S'm'
sg13
I80
sg14
(lp123
(g16
I45
tp124
a(g19
g20
tp125
a(g22
I35
tp126
a(g24
g49
tp127
asba(iplayerTypes
tPlayer
p128
(dp129
g8
S'Nicolas Mahut'
p130
sg10
I4
sg11
I0
sg12
S'm'
sg13
I82
sg14
(lp131
(g16
I55
tp132
a(g19
g20
tp133
a(g22
g33
tp134
a(g24
I27
tp135
asba(iplayerTypes
tPlayer
p136
(dp137
g8
S'Kei Nishikori'
p138
sg10
I5
sg11
I1
sg12
S'm'
sg13
I33
sg14
(lp139
(g16
g17
tp140
a(g19
g20
tp141
a(g22
I33
tp142
a(g24
g25
tp143
asbasba.