(lp1
(iplayerTypes
fPlayer
p2
(dp3
S'bench'
p4
(lp5
(iplayerTypes
tPlayer
p6
(dp7
S'name'
p8
S'Milos Raonic'
p9
sS'attribute'
p10
I4
sS'alive'
p11
I1
sS'sex'
p12
S'm'
sS'points'
p13
I0
sS'history'
p14
(lp15
sba(iplayerTypes
tPlayer
p16
(dp17
g8
S'Gael Monfils'
p18
sg10
I3
sg11
I1
sg12
S'm'
sg13
I0
sg14
(lp19
sbasS'total'
p20
I0
sg8
S'Ben'
p21
sS'team'
p22
(lp23
(iplayerTypes
tPlayer
p24
(dp25
g8
S'Novak Djokovic'
p26
sg10
I1
sg11
I1
sg12
S'm'
sg13
I0
sg14
(lp27
sba(iplayerTypes
tPlayer
p28
(dp29
g8
S'Stanislas Wawrinka'
p30
sg10
I2
sg11
I1
sg12
S'm'
sg13
I0
sg14
(lp31
sba(iplayerTypes
tPlayer
p32
(dp33
g8
S'Dominic Thiem'
p34
sg10
I3
sg11
I1
sg12
S'm'
sg13
I0
sg14
(lp35
sba(iplayerTypes
tPlayer
p36
(dp37
g8
S'Roger Federer'
p38
sg10
I4
sg11
I1
sg12
S'm'
sg13
I0
sg14
(lp39
sba(iplayerTypes
tPlayer
p40
(dp41
g8
S'Kei Niskikori'
p42
sg10
I5
sg11
I1
sg12
S'm'
sg13
I0
sg14
(lp43
sbasba.