(lp1
(iplayerTypes
fPlayer
p2
(dp3
S'bench'
p4
(lp5
(iplayerTypes
tPlayer
p6
(dp7
S'name'
p8
S'Nick Kyrgios'
p9
sS'attribute'
p10
I1
sS'alive'
p11
I0
sS'sex'
p12
S'm'
sS'points'
p13
I15
sS'history'
p14
(lp15
(S'1/16/2017'
p16
I15
tp17
a(S'1/17/2017'
p18
S'DNP'
p19
tp20
a(S'1/18/2017'
p21
S'(60)'
tp22
a(S'1/19/2017'
p23
S'OUT'
p24
tp25
a(S'1/20/2017'
p26
S'OUT'
p27
tp28
a(S'1/21/2017'
p29
S'OUT'
p30
tp31
a(S'1/22/2017'
p32
S'OUT'
p33
tp34
a(S'1/23/2017'
p35
S'OUT'
p36
tp37
a(S'1/24/2017'
p38
S'OUT'
p39
tp40
a(S'1/25/2017'
p41
S'OUT'
p42
tp43
a(S'1/26/2017'
p44
S'OUT'
p45
tp46
asba(iplayerTypes
tPlayer
p47
(dp48
g8
S'John Isner'
p49
sg10
I2
sg11
I0
sg12
S'm'
sg13
I229
sg14
(lp50
(g16
I98
tp51
a(g18
g19
tp52
a(g21
I131
tp53
a(g23
g24
tp54
a(g26
g27
tp55
a(g29
g30
tp56
a(g32
g33
tp57
a(g35
g36
tp58
a(g38
g39
tp59
a(g41
g42
tp60
a(g44
g45
tp61
asba(iplayerTypes
tPlayer
p62
(dp63
g8
S'Novak Djokovic'
p64
sg10
I5
sg11
I0
sg12
S'm'
sg13
I107
sg14
(lp65
(g16
S'DNP'
p66
tp67
a(g18
I39
tp68
a(g21
S'DNP'
p69
tp70
a(g23
I68
tp71
a(g26
g27
tp72
a(g29
g30
tp73
a(g32
g33
tp74
a(g35
g36
tp75
a(g38
g39
tp76
a(g41
g42
tp77
a(g44
g45
tp78
asbasS'total'
p79
I1325
sg8
S'Ben'
p80
sS'team'
p81
(lp82
(iplayerTypes
tPlayer
p83
(dp84
g8
S'Roger Federer'
p85
sg10
I1
sg11
I1
sg12
S'm'
sg13
I165
sg14
(lp86
(g16
S'(54)'
tp87
a(g18
g19
tp88
a(g21
I45
tp89
a(g23
S'DNP'
p90
tp91
a(g26
I18
tp92
a(g29
S'DNP'
p93
tp94
a(g32
I54
tp95
a(g35
S'DNP'
p96
tp97
a(g38
I24
tp98
a(g41
S'DNP'
p99
tp100
a(g44
I24
tp101
asba(iplayerTypes
tPlayer
p102
(dp103
g8
S'Andy Murray'
p104
sg10
I2
sg11
I0
sg12
S'm'
sg13
I172
sg14
(lp105
(g16
S'(23)'
tp106
a(g18
g19
tp107
a(g21
S'(36)'
tp108
a(g23
g90
tp109
a(g26
I58
tp110
a(g29
g93
tp111
a(g32
I114
tp112
a(g35
g36
tp113
a(g38
g39
tp114
a(g41
g42
tp115
a(g44
g45
tp116
asba(iplayerTypes
tPlayer
p117
(dp118
g8
S'Angelique Kerber'
p119
sg10
I3
sg11
I0
sg12
S'f'
sg13
I177
sg14
(lp120
(g16
I43
tp121
a(g18
g19
tp122
a(g21
I47
tp123
a(g23
g90
tp124
a(g26
I53
tp125
a(g29
g93
tp126
a(g32
I34
tp127
a(g35
g36
tp128
a(g38
g39
tp129
a(g41
g42
tp130
a(g44
g45
tp131
asba(iplayerTypes
tPlayer
p132
(dp133
g8
S'Stan Wawrinka'
p134
sg10
I4
sg11
I0
sg12
S'm'
sg13
I357
sg14
(lp135
(g16
I47
tp136
a(g18
g19
tp137
a(g21
I56
tp138
a(g23
g90
tp139
a(g26
I52
tp140
a(g29
g93
tp141
a(g32
I67
tp142
a(g35
g96
tp143
a(g38
I65
tp144
a(g41
g99
tp145
a(g44
I70
tp146
asba(iplayerTypes
tPlayer
p147
(dp148
g8
S'Grigor Dimitrov'
p149
sg10
I5
sg11
I1
sg12
S'm'
sg13
I103
sg14
(lp150
(S'0/0/0'
S'(-)'
tp151
ag151
ag151
ag151
ag151
ag151
a(g32
S'DNP'
p152
tp153
a(g35
I39
tp154
a(g38
S'DNP'
p155
tp156
a(g41
I64
tp157
a(g44
S'DNP'
p158
tp159
asbasba(iplayerTypes
fPlayer
p160
(dp161
g4
(lp162
(iplayerTypes
tPlayer
p163
(dp164
g8
S'Novak Djokovic'
p165
sg10
I2
sg11
I0
sg12
S'm'
sg13
I0
sg14
(lp166
(g16
g66
tp167
a(g18
S'(14)'
tp168
a(g21
g69
tp169
a(g23
S'(64)'
tp170
a(g26
g27
tp171
a(g29
g30
tp172
a(g32
g33
tp173
a(g35
g36
tp174
a(g38
g39
tp175
a(g41
g42
tp176
a(g44
g45
tp177
asba(iplayerTypes
tPlayer
p178
(dp179
g8
S'Tomas Berdych'
p180
sg10
I2
sg11
I0
sg12
S'm'
sg13
I38
sg14
(lp181
(g16
S'(10)'
tp182
a(g18
g19
tp183
a(g21
S'(43)'
tp184
a(g23
g90
tp185
a(g26
I38
tp186
a(g29
g30
tp187
a(g32
g33
tp188
a(g35
g36
tp189
a(g38
g39
tp190
a(g41
g42
tp191
a(g44
g45
tp192
asba(iplayerTypes
tPlayer
p193
(dp194
g8
S'Marin Cilic'
p195
sg10
I2
sg11
I0
sg12
S'm'
sg13
I146
sg14
(lp196
(g16
I105
tp197
a(g18
g19
tp198
a(g21
I41
tp199
a(g23
g24
tp200
a(g26
g27
tp201
a(g29
g30
tp202
a(g32
g33
tp203
a(g35
g36
tp204
a(g38
g39
tp205
a(g41
g42
tp206
a(g44
g45
tp207
asbasg79
I1296
sg8
S'Steve'
p208
sg81
(lp209
(iplayerTypes
tPlayer
p210
(dp211
g8
S'Ivo Karlovic'
p212
sg10
I1
sg11
I0
sg12
S'm'
sg13
I291
sg14
(lp213
(g16
g66
tp214
a(g18
I189
tp215
a(g21
g69
tp216
a(g23
I36
tp217
a(g26
S'DNP'
p218
tp219
a(g29
I66
tp220
a(g32
g33
tp221
a(g35
g36
tp222
a(g38
g39
tp223
a(g41
g42
tp224
a(g44
g45
tp225
asba(iplayerTypes
tPlayer
p226
(dp227
g8
S'Jo-Wilfried Tsonga'
p228
sg10
I2
sg11
I0
sg12
S'm'
sg13
I104
sg14
(lp229
(S'0/0/0'
S'(-)'
tp230
ag230
ag230
ag230
ag230
ag230
a(g32
I89
tp231
a(g35
g96
tp232
a(g38
I15
tp233
a(g41
g42
tp234
a(g44
g45
tp235
asba(iplayerTypes
tPlayer
p236
(dp237
g8
S'Serena Williams'
p238
sg10
I3
sg11
I1
sg12
S'f'
sg13
I292
sg14
(lp239
(g16
g66
tp240
a(g18
I46
tp241
a(g21
g69
tp242
a(g23
I38
tp243
a(g26
g218
tp244
a(g29
I54
tp245
a(g32
g152
tp246
a(g35
I51
tp247
a(g38
g155
tp248
a(g41
I48
tp249
a(g44
I55
tp250
asba(iplayerTypes
tPlayer
p251
(dp252
g8
S'Milos Raonic'
p253
sg10
I4
sg11
I0
sg12
S'm'
sg13
I286
sg14
(lp254
(g16
g66
tp255
a(g18
I62
tp256
a(g21
g69
tp257
a(g23
I59
tp258
a(g26
g218
tp259
a(g29
I61
tp260
a(g32
g152
tp261
a(g35
I48
tp262
a(g38
g155
tp263
a(g41
I56
tp264
a(g44
g45
tp265
asba(iplayerTypes
tPlayer
p266
(dp267
g8
S'Andy Murray'
p268
sg10
I5
sg11
I0
sg12
S'm'
sg13
I139
sg14
(lp269
(g16
I31
tp270
a(g18
g19
tp271
a(g21
I30
tp272
a(g23
g90
tp273
a(g26
I32
tp274
a(g29
g93
tp275
a(g32
I46
tp276
a(g35
g36
tp277
a(g38
g39
tp278
a(g41
g42
tp279
a(g44
g45
tp280
asbasba(iplayerTypes
fPlayer
p281
(dp282
g4
(lp283
(iplayerTypes
tPlayer
p284
(dp285
g8
S'Dominic Thiem'
p286
sg10
I3
sg11
I0
sg12
S'm'
sg13
I78
sg14
(lp287
(g16
g66
tp288
a(g18
S'(39)'
tp289
a(g21
g69
tp290
a(g23
S'(43)'
tp291
a(g26
g218
tp292
a(g29
I45
tp293
a(g32
g152
tp294
a(g35
I33
tp295
a(g38
g39
tp296
a(g41
g42
tp297
a(g44
g45
tp298
asba(iplayerTypes
tPlayer
p299
(dp300
g8
S'Angelique Kerber'
p301
sg10
I4
sg11
I0
sg12
S'f'
sg13
I151
sg14
(lp302
(g16
S'(64)'
tp303
a(g18
g19
tp304
a(g21
I51
tp305
a(g23
g90
tp306
a(g26
I61
tp307
a(g29
g93
tp308
a(g32
I39
tp309
a(g35
g36
tp310
a(g38
g39
tp311
a(g41
g42
tp312
a(g44
g45
tp313
asbasg79
I1280
sg8
S'Santay'
p314
sg81
(lp315
(iplayerTypes
tPlayer
p316
(dp317
g8
S'Milos Raonic'
p318
sg10
I1
sg11
I0
sg12
S'm'
sg13
I255
sg14
(lp319
(g16
g66
tp320
a(g18
I39
tp321
a(g21
g69
tp322
a(g23
I54
tp323
a(g26
g218
tp324
a(g29
I54
tp325
a(g32
g152
tp326
a(g35
I72
tp327
a(g38
g155
tp328
a(g41
I36
tp329
a(g44
g45
tp330
asba(iplayerTypes
tPlayer
p331
(dp332
g8
S'Roger Federer'
p333
sg10
I2
sg11
I1
sg12
S'm'
sg13
I454
sg14
(lp334
(g16
I56
tp335
a(g18
g19
tp336
a(g21
I55
tp337
a(g23
g90
tp338
a(g26
I63
tp339
a(g29
g93
tp340
a(g32
I119
tp341
a(g35
g96
tp342
a(g38
I117
tp343
a(g41
g99
tp344
a(g44
I44
tp345
asba(iplayerTypes
tPlayer
p346
(dp347
g8
S'Rafael Nadal'
p348
sg10
I3
sg11
I1
sg12
S'm'
sg13
I88
sg14
(lp349
(g16
g66
tp350
a(g18
I38
tp351
a(g21
g69
tp352
a(g23
I50
tp353
a(g26
g218
tp354
a(g29
S'(40)'
tp355
a(g32
g152
tp356
a(g35
S'(43)'
tp357
a(g38
g155
tp358
a(g41
S'(36)'
tp359
a(g44
g158
tp360
asba(iplayerTypes
tPlayer
p361
(dp362
g8
S'Grigor Dimitrov'
p363
sg10
I4
sg11
I1
sg12
S'm'
sg13
I62
sg14
(lp364
(g16
g66
tp365
a(g18
I62
tp366
a(g21
g69
tp367
a(g23
S'(54)'
tp368
a(g26
g218
tp369
a(g29
S'(35)'
tp370
a(g32
g152
tp371
a(g35
S'(62)'
tp372
a(g38
g155
tp373
a(g41
S'(43)'
tp374
a(g44
g158
tp375
asba(iplayerTypes
tPlayer
p376
(dp377
g8
S'Kei Nishikori'
p378
sg10
I5
sg11
I0
sg12
S'm'
sg13
I192
sg14
(lp379
(g16
I65
tp380
a(g18
g19
tp381
a(g21
I56
tp382
a(g23
g90
tp383
a(g26
I22
tp384
a(g29
g93
tp385
a(g32
I49
tp386
a(g35
g36
tp387
a(g38
g39
tp388
a(g41
g42
tp389
a(g44
g45
tp390
asbasba(iplayerTypes
fPlayer
p391
(dp392
g4
(lp393
(iplayerTypes
tPlayer
p394
(dp395
g8
S'Rafael Nadal'
p396
sg10
I5
sg11
I1
sg12
S'm'
sg13
I0
sg14
(lp397
(g16
g66
tp398
a(g18
S'(15)'
tp399
a(g21
g69
tp400
a(g23
S'(47)'
tp401
a(g26
g218
tp402
a(g29
S'(44)'
tp403
a(g32
g152
tp404
a(g35
S'(36)'
tp405
a(g38
g155
tp406
a(g41
S'(30)'
tp407
a(g44
g158
tp408
asba(iplayerTypes
tPlayer
p409
(dp410
g8
S'Marin Cilic'
p411
sg10
I1
sg11
I0
sg12
S'm'
sg13
I84
sg14
(lp412
(g16
I54
tp413
a(g18
g19
tp414
a(g21
I30
tp415
a(g23
g24
tp416
a(g26
g27
tp417
a(g29
g30
tp418
a(g32
g33
tp419
a(g35
g36
tp420
a(g38
g39
tp421
a(g41
g42
tp422
a(g44
g45
tp423
asba(iplayerTypes
tPlayer
p424
(dp425
g8
S'Novak Djokovic'
p426
sg10
I4
sg11
I0
sg12
S'm'
sg13
I105
sg14
(lp427
(g16
g66
tp428
a(g18
I50
tp429
a(g21
g69
tp430
a(g23
I55
tp431
a(g26
g27
tp432
a(g29
g30
tp433
a(g32
g33
tp434
a(g35
g36
tp435
a(g38
g39
tp436
a(g41
g42
tp437
a(g44
g45
tp438
asbasg79
I1140
sg8
S'Geoff'
p439
sg81
(lp440
(iplayerTypes
tPlayer
p441
(dp442
g8
S'Jo-Wilfried Tsonga'
p443
sg10
I1
sg11
I0
sg12
S'm'
sg13
I111
sg14
(lp444
(g16
S'(45)'
tp445
a(g18
g19
tp446
a(g21
S'(39)'
tp447
a(g23
g90
tp448
a(g26
I54
tp449
a(g29
g93
tp450
a(g32
I45
tp451
a(g35
g96
tp452
a(g38
I12
tp453
a(g41
g42
tp454
a(g44
g45
tp455
asba(iplayerTypes
tPlayer
p456
(dp457
g8
S'Milos Raonic'
p458
sg10
I2
sg11
I0
sg12
S'm'
sg13
I381
sg14
(lp459
(g16
g66
tp460
a(g18
I67
tp461
a(g21
g69
tp462
a(g23
I97
tp463
a(g26
g218
tp464
a(g29
I76
tp465
a(g32
g152
tp466
a(g35
I95
tp467
a(g38
g155
tp468
a(g41
I46
tp469
a(g44
g45
tp470
asba(iplayerTypes
tPlayer
p471
(dp472
g8
S'Andy Murray'
p473
sg10
I3
sg11
I0
sg12
S'm'
sg13
I180
sg14
(lp474
(g16
I45
tp475
a(g18
g19
tp476
a(g21
I49
tp477
a(g23
g90
tp478
a(g26
I45
tp479
a(g29
g93
tp480
a(g32
I41
tp481
a(g35
g36
tp482
a(g38
g39
tp483
a(g41
g42
tp484
a(g44
g45
tp485
asba(iplayerTypes
tPlayer
p486
(dp487
g8
S'Dominic Thiem'
p488
sg10
I4
sg11
I0
sg12
S'm'
sg13
I45
sg14
(lp489
(S'0/0/0'
S'(-)'
tp490
ag490
ag490
ag490
ag490
ag490
a(g32
g152
tp491
a(g35
I45
tp492
a(g38
g39
tp493
a(g41
g42
tp494
a(g44
g45
tp495
asba(iplayerTypes
tPlayer
p496
(dp497
g8
S'Stan Wawrinka'
p498
sg10
I5
sg11
I0
sg12
S'm'
sg13
I234
sg14
(lp499
(g16
I70
tp500
a(g18
g19
tp501
a(g21
I40
tp502
a(g23
g90
tp503
a(g26
I40
tp504
a(g29
g93
tp505
a(g32
I14
tp506
a(g35
g96
tp507
a(g38
I37
tp508
a(g41
g99
tp509
a(g44
I33
tp510
asbasba(iplayerTypes
fPlayer
p511
(dp512
g4
(lp513
(iplayerTypes
tPlayer
p514
(dp515
g8
S'Gael Monfils'
p516
sg10
I2
sg11
I0
sg12
S'm'
sg13
I0
sg14
(lp517
(g16
g66
tp518
a(g18
S'(47)'
tp519
a(g21
g69
tp520
a(g23
S'(42)'
tp521
a(g26
g218
tp522
a(g29
S'(25)'
tp523
a(g32
g152
tp524
a(g35
S'(40)'
tp525
a(g38
g39
tp526
a(g41
g42
tp527
a(g44
g45
tp528
asba(iplayerTypes
tPlayer
p529
(dp530
g8
S'John Isner'
p531
sg10
I1
sg11
I0
sg12
S'm'
sg13
I168
sg14
(lp532
(g16
I81
tp533
a(g18
g19
tp534
a(g21
I87
tp535
a(g23
g24
tp536
a(g26
g27
tp537
a(g29
g30
tp538
a(g32
g33
tp539
a(g35
g36
tp540
a(g38
g39
tp541
a(g41
g42
tp542
a(g44
g45
tp543
asba(iplayerTypes
tPlayer
p544
(dp545
g8
S'Novak Djokovic'
p546
sg10
I3
sg11
I0
sg12
S'm'
sg13
I88
sg14
(lp547
(g16
g66
tp548
a(g18
I50
tp549
a(g21
g69
tp550
a(g23
I38
tp551
a(g26
g27
tp552
a(g29
g30
tp553
a(g32
g33
tp554
a(g35
g36
tp555
a(g38
g39
tp556
a(g41
g42
tp557
a(g44
g45
tp558
asbasg79
I1119
sg8
S'Jack'
p559
sg81
(lp560
(iplayerTypes
tPlayer
p561
(dp562
g8
S'Dominic Thiem'
p563
sg10
I1
sg11
I0
sg12
S'm'
sg13
I45
sg14
(lp564
(g16
g66
tp565
a(g18
S'(47)'
tp566
a(g21
g69
tp567
a(g23
S'(24)'
tp568
a(g26
g218
tp569
a(g29
I21
tp570
a(g32
g152
tp571
a(g35
I24
tp572
a(g38
g39
tp573
a(g41
g42
tp574
a(g44
g45
tp575
asba(iplayerTypes
tPlayer
p576
(dp577
g8
S'Stan Wawrinka'
p578
sg10
I2
sg11
I0
sg12
S'm'
sg13
I362
sg14
(lp579
(g16
I77
tp580
a(g18
g19
tp581
a(g21
I67
tp582
a(g23
g90
tp583
a(g26
I44
tp584
a(g29
g93
tp585
a(g32
I65
tp586
a(g35
g96
tp587
a(g38
I54
tp588
a(g41
g99
tp589
a(g44
I55
tp590
asba(iplayerTypes
tPlayer
p591
(dp592
g8
S'Kei Nishikori'
p593
sg10
I3
sg11
I0
sg12
S'm'
sg13
I30
sg14
(lp594
(S'0/0/0'
S'(-)'
tp595
ag595
ag595
ag595
ag595
ag595
a(g32
I30
tp596
a(g35
g36
tp597
a(g38
g39
tp598
a(g41
g42
tp599
a(g44
g45
tp600
asba(iplayerTypes
tPlayer
p601
(dp602
g8
S'Andy Murray'
p603
sg10
I4
sg11
I0
sg12
S'm'
sg13
I197
sg14
(lp604
(g16
I43
tp605
a(g18
g19
tp606
a(g21
I68
tp607
a(g23
g90
tp608
a(g26
I50
tp609
a(g29
g93
tp610
a(g32
I36
tp611
a(g35
g36
tp612
a(g38
g39
tp613
a(g41
g42
tp614
a(g44
g45
tp615
asba(iplayerTypes
tPlayer
p616
(dp617
g8
S'Roger Federer'
p618
sg10
I5
sg11
I1
sg12
S'm'
sg13
I229
sg14
(lp619
(g16
I31
tp620
a(g18
g19
tp621
a(g21
I37
tp622
a(g23
g90
tp623
a(g26
I20
tp624
a(g29
g93
tp625
a(g32
I61
tp626
a(g35
g96
tp627
a(g38
I32
tp628
a(g41
g99
tp629
a(g44
I48
tp630
asbasba.