(lp1
(iplayerTypes
fPlayer
p2
(dp3
S'bench'
p4
(lp5
(iplayerTypes
tPlayer
p6
(dp7
S'name'
p8
S'Novak Djokovic'
p9
sS'attribute'
p10
I2
sS'alive'
p11
I0
sS'sex'
p12
S'm'
sS'points'
p13
I0
sS'history'
p14
(lp15
(S'1/16/2017'
p16
S'DNP'
p17
tp18
a(S'1/17/2017'
p19
S'(14)'
tp20
a(S'1/18/2017'
p21
S'DNP'
p22
tp23
a(S'1/19/2017'
p24
S'(64)'
tp25
a(S'1/20/2017'
p26
S'OUT'
p27
tp28
a(S'1/21/2017'
p29
S'OUT'
p30
tp31
a(S'1/22/2017'
p32
S'OUT'
p33
tp34
a(S'1/23/2017'
p35
S'OUT'
p36
tp37
asba(iplayerTypes
tPlayer
p38
(dp39
g8
S'Tomas Berdych'
p40
sg10
I2
sg11
I0
sg12
S'm'
sg13
I38
sg14
(lp41
(g16
S'(10)'
tp42
a(g19
S'DNP'
p43
tp44
a(g21
S'(43)'
tp45
a(g24
S'DNP'
p46
tp47
a(g26
I38
tp48
a(g29
g30
tp49
a(g32
g33
tp50
a(g35
g36
tp51
asba(iplayerTypes
tPlayer
p52
(dp53
g8
S'Marin Cilic'
p54
sg10
I2
sg11
I0
sg12
S'm'
sg13
I146
sg14
(lp55
(g16
I105
tp56
a(g19
g43
tp57
a(g21
I41
tp58
a(g24
S'OUT'
p59
tp60
a(g26
g27
tp61
a(g29
g30
tp62
a(g32
g33
tp63
a(g35
g36
tp64
asbasS'total'
p65
I1122
sg8
S'Steve'
p66
sS'team'
p67
(lp68
(iplayerTypes
tPlayer
p69
(dp70
g8
S'Ivo Karlovic'
p71
sg10
I1
sg11
I0
sg12
S'm'
sg13
I291
sg14
(lp72
(g16
g17
tp73
a(g19
I189
tp74
a(g21
g22
tp75
a(g24
I36
tp76
a(g26
S'DNP'
p77
tp78
a(g29
I66
tp79
a(g32
g33
tp80
a(g35
g36
tp81
asba(iplayerTypes
tPlayer
p82
(dp83
g8
S'Jo-Wilfried Tsonga'
p84
sg10
I2
sg11
I1
sg12
S'm'
sg13
I89
sg14
(lp85
(S'0/0/0'
S'(-)'
tp86
ag86
ag86
ag86
ag86
ag86
a(g32
I89
tp87
a(g35
S'DNP'
p88
tp89
asba(iplayerTypes
tPlayer
p90
(dp91
g8
S'Serena Williams'
p92
sg10
I3
sg11
I1
sg12
S'f'
sg13
I189
sg14
(lp93
(g16
g17
tp94
a(g19
I46
tp95
a(g21
g22
tp96
a(g24
I38
tp97
a(g26
g77
tp98
a(g29
I54
tp99
a(g32
S'DNP'
p100
tp101
a(g35
I51
tp102
asba(iplayerTypes
tPlayer
p103
(dp104
g8
S'Milos Raonic'
p105
sg10
I4
sg11
I1
sg12
S'm'
sg13
I230
sg14
(lp106
(g16
g17
tp107
a(g19
I62
tp108
a(g21
g22
tp109
a(g24
I59
tp110
a(g26
g77
tp111
a(g29
I61
tp112
a(g32
g100
tp113
a(g35
I48
tp114
asba(iplayerTypes
tPlayer
p115
(dp116
g8
S'Andy Murray'
p117
sg10
I5
sg11
I0
sg12
S'm'
sg13
I139
sg14
(lp118
(g16
I31
tp119
a(g19
g43
tp120
a(g21
I30
tp121
a(g24
g46
tp122
a(g26
I32
tp123
a(g29
S'DNP'
p124
tp125
a(g32
I46
tp126
a(g35
g36
tp127
asbasba(iplayerTypes
fPlayer
p128
(dp129
g4
(lp130
(iplayerTypes
tPlayer
p131
(dp132
g8
S'Grigor Dimitrov'
p133
sg10
I4
sg11
I1
sg12
S'm'
sg13
I62
sg14
(lp134
(g16
g17
tp135
a(g19
I62
tp136
a(g21
g22
tp137
a(g24
S'(54)'
tp138
a(g26
g77
tp139
a(g29
S'(35)'
tp140
a(g32
g100
tp141
a(g35
S'(62)'
tp142
asba(iplayerTypes
tPlayer
p143
(dp144
g8
S'Rafael Nadal'
p145
sg10
I3
sg11
I1
sg12
S'm'
sg13
I88
sg14
(lp146
(g16
g17
tp147
a(g19
I38
tp148
a(g21
g22
tp149
a(g24
I50
tp150
a(g26
g77
tp151
a(g29
S'(40)'
tp152
a(g32
g100
tp153
a(g35
S'(43)'
tp154
asbasg65
I1083
sg8
S'Santay'
p155
sg67
(lp156
(iplayerTypes
tPlayer
p157
(dp158
g8
S'Milos Raonic'
p159
sg10
I1
sg11
I1
sg12
S'm'
sg13
I219
sg14
(lp160
(g16
g17
tp161
a(g19
I39
tp162
a(g21
g22
tp163
a(g24
I54
tp164
a(g26
g77
tp165
a(g29
I54
tp166
a(g32
g100
tp167
a(g35
I72
tp168
asba(iplayerTypes
tPlayer
p169
(dp170
g8
S'Roger Federer'
p171
sg10
I2
sg11
I1
sg12
S'm'
sg13
I293
sg14
(lp172
(g16
I56
tp173
a(g19
g43
tp174
a(g21
I55
tp175
a(g24
g46
tp176
a(g26
I63
tp177
a(g29
g124
tp178
a(g32
I119
tp179
a(g35
g88
tp180
asba(iplayerTypes
tPlayer
p181
(dp182
g8
S'Dominic Thiem'
p183
sg10
I3
sg11
I0
sg12
S'm'
sg13
I78
sg14
(lp184
(g16
g17
tp185
a(g19
S'(39)'
tp186
a(g21
g22
tp187
a(g24
S'(43)'
tp188
a(g26
g77
tp189
a(g29
I45
tp190
a(g32
g100
tp191
a(g35
I33
tp192
asba(iplayerTypes
tPlayer
p193
(dp194
g8
S'Angelique Kerber'
p195
sg10
I4
sg11
I0
sg12
S'f'
sg13
I151
sg14
(lp196
(g16
S'(64)'
tp197
a(g19
g43
tp198
a(g21
I51
tp199
a(g24
g46
tp200
a(g26
I61
tp201
a(g29
g124
tp202
a(g32
I39
tp203
a(g35
g36
tp204
asba(iplayerTypes
tPlayer
p205
(dp206
g8
S'Kei Nishikori'
p207
sg10
I5
sg11
I0
sg12
S'm'
sg13
I192
sg14
(lp208
(g16
I65
tp209
a(g19
g43
tp210
a(g21
I56
tp211
a(g24
g46
tp212
a(g26
I22
tp213
a(g29
g124
tp214
a(g32
I49
tp215
a(g35
g36
tp216
asbasba(iplayerTypes
fPlayer
p217
(dp218
g4
(lp219
(iplayerTypes
tPlayer
p220
(dp221
g8
S'Nick Kyrgios'
p222
sg10
I1
sg11
I0
sg12
S'm'
sg13
I15
sg14
(lp223
(g16
I15
tp224
a(g19
g43
tp225
a(g21
S'(60)'
tp226
a(g24
g59
tp227
a(g26
g27
tp228
a(g29
g30
tp229
a(g32
g33
tp230
a(g35
g36
tp231
asba(iplayerTypes
tPlayer
p232
(dp233
g8
S'John Isner'
p234
sg10
I2
sg11
I0
sg12
S'm'
sg13
I229
sg14
(lp235
(g16
I98
tp236
a(g19
g43
tp237
a(g21
I131
tp238
a(g24
g59
tp239
a(g26
g27
tp240
a(g29
g30
tp241
a(g32
g33
tp242
a(g35
g36
tp243
asba(iplayerTypes
tPlayer
p244
(dp245
g8
S'Novak Djokovic'
p246
sg10
I5
sg11
I0
sg12
S'm'
sg13
I107
sg14
(lp247
(g16
g17
tp248
a(g19
I39
tp249
a(g21
g22
tp250
a(g24
I68
tp251
a(g26
g27
tp252
a(g29
g30
tp253
a(g32
g33
tp254
a(g35
g36
tp255
asbasg65
I1078
sg8
S'Ben'
p256
sg67
(lp257
(iplayerTypes
tPlayer
p258
(dp259
g8
S'Roger Federer'
p260
sg10
I1
sg11
I1
sg12
S'm'
sg13
I117
sg14
(lp261
(g16
S'(54)'
tp262
a(g19
g43
tp263
a(g21
I45
tp264
a(g24
g46
tp265
a(g26
I18
tp266
a(g29
g124
tp267
a(g32
I54
tp268
a(g35
g88
tp269
asba(iplayerTypes
tPlayer
p270
(dp271
g8
S'Andy Murray'
p272
sg10
I2
sg11
I0
sg12
S'm'
sg13
I172
sg14
(lp273
(g16
S'(23)'
tp274
a(g19
g43
tp275
a(g21
S'(36)'
tp276
a(g24
g46
tp277
a(g26
I58
tp278
a(g29
g124
tp279
a(g32
I114
tp280
a(g35
g36
tp281
asba(iplayerTypes
tPlayer
p282
(dp283
g8
S'Angelique Kerber'
p284
sg10
I3
sg11
I0
sg12
S'f'
sg13
I177
sg14
(lp285
(g16
I43
tp286
a(g19
g43
tp287
a(g21
I47
tp288
a(g24
g46
tp289
a(g26
I53
tp290
a(g29
g124
tp291
a(g32
I34
tp292
a(g35
g36
tp293
asba(iplayerTypes
tPlayer
p294
(dp295
g8
S'Stan Wawrinka'
p296
sg10
I4
sg11
I1
sg12
S'm'
sg13
I222
sg14
(lp297
(g16
I47
tp298
a(g19
g43
tp299
a(g21
I56
tp300
a(g24
g46
tp301
a(g26
I52
tp302
a(g29
g124
tp303
a(g32
I67
tp304
a(g35
g88
tp305
asba(iplayerTypes
tPlayer
p306
(dp307
g8
S'Grigor Dimitrov'
p308
sg10
I5
sg11
I1
sg12
S'm'
sg13
I39
sg14
(lp309
(S'0/0/0'
S'(-)'
tp310
ag310
ag310
ag310
ag310
ag310
a(g32
g100
tp311
a(g35
I39
tp312
asbasba(iplayerTypes
fPlayer
p313
(dp314
g4
(lp315
(iplayerTypes
tPlayer
p316
(dp317
g8
S'Rafael Nadal'
p318
sg10
I5
sg11
I1
sg12
S'm'
sg13
I0
sg14
(lp319
(g16
g17
tp320
a(g19
S'(15)'
tp321
a(g21
g22
tp322
a(g24
S'(47)'
tp323
a(g26
g77
tp324
a(g29
S'(44)'
tp325
a(g32
g100
tp326
a(g35
S'(36)'
tp327
asba(iplayerTypes
tPlayer
p328
(dp329
g8
S'Marin Cilic'
p330
sg10
I1
sg11
I0
sg12
S'm'
sg13
I84
sg14
(lp331
(g16
I54
tp332
a(g19
g43
tp333
a(g21
I30
tp334
a(g24
g59
tp335
a(g26
g27
tp336
a(g29
g30
tp337
a(g32
g33
tp338
a(g35
g36
tp339
asba(iplayerTypes
tPlayer
p340
(dp341
g8
S'Novak Djokovic'
p342
sg10
I4
sg11
I0
sg12
S'm'
sg13
I105
sg14
(lp343
(g16
g17
tp344
a(g19
I50
tp345
a(g21
g22
tp346
a(g24
I55
tp347
a(g26
g27
tp348
a(g29
g30
tp349
a(g32
g33
tp350
a(g35
g36
tp351
asbasg65
I1012
sg8
S'Geoff'
p352
sg67
(lp353
(iplayerTypes
tPlayer
p354
(dp355
g8
S'Jo-Wilfried Tsonga'
p356
sg10
I1
sg11
I1
sg12
S'm'
sg13
I99
sg14
(lp357
(g16
S'(45)'
tp358
a(g19
g43
tp359
a(g21
S'(39)'
tp360
a(g24
g46
tp361
a(g26
I54
tp362
a(g29
g124
tp363
a(g32
I45
tp364
a(g35
g88
tp365
asba(iplayerTypes
tPlayer
p366
(dp367
g8
S'Milos Raonic'
p368
sg10
I2
sg11
I1
sg12
S'm'
sg13
I335
sg14
(lp369
(g16
g17
tp370
a(g19
I67
tp371
a(g21
g22
tp372
a(g24
I97
tp373
a(g26
g77
tp374
a(g29
I76
tp375
a(g32
g100
tp376
a(g35
I95
tp377
asba(iplayerTypes
tPlayer
p378
(dp379
g8
S'Andy Murray'
p380
sg10
I3
sg11
I0
sg12
S'm'
sg13
I180
sg14
(lp381
(g16
I45
tp382
a(g19
g43
tp383
a(g21
I49
tp384
a(g24
g46
tp385
a(g26
I45
tp386
a(g29
g124
tp387
a(g32
I41
tp388
a(g35
g36
tp389
asba(iplayerTypes
tPlayer
p390
(dp391
g8
S'Dominic Thiem'
p392
sg10
I4
sg11
I0
sg12
S'm'
sg13
I45
sg14
(lp393
(S'0/0/0'
S'(-)'
tp394
ag394
ag394
ag394
ag394
ag394
a(g32
g100
tp395
a(g35
I45
tp396
asba(iplayerTypes
tPlayer
p397
(dp398
g8
S'Stan Wawrinka'
p399
sg10
I5
sg11
I1
sg12
S'm'
sg13
I164
sg14
(lp400
(g16
I70
tp401
a(g19
g43
tp402
a(g21
I40
tp403
a(g24
g46
tp404
a(g26
I40
tp405
a(g29
g124
tp406
a(g32
I14
tp407
a(g35
g88
tp408
asbasba(iplayerTypes
fPlayer
p409
(dp410
g4
(lp411
(iplayerTypes
tPlayer
p412
(dp413
g8
S'Gael Monfils'
p414
sg10
I2
sg11
I0
sg12
S'm'
sg13
I0
sg14
(lp415
(g16
g17
tp416
a(g19
S'(47)'
tp417
a(g21
g22
tp418
a(g24
S'(42)'
tp419
a(g26
g77
tp420
a(g29
S'(25)'
tp421
a(g32
g100
tp422
a(g35
S'(40)'
tp423
asba(iplayerTypes
tPlayer
p424
(dp425
g8
S'John Isner'
p426
sg10
I1
sg11
I0
sg12
S'm'
sg13
I168
sg14
(lp427
(g16
I81
tp428
a(g19
g43
tp429
a(g21
I87
tp430
a(g24
g59
tp431
a(g26
g27
tp432
a(g29
g30
tp433
a(g32
g33
tp434
a(g35
g36
tp435
asba(iplayerTypes
tPlayer
p436
(dp437
g8
S'Novak Djokovic'
p438
sg10
I3
sg11
I0
sg12
S'm'
sg13
I88
sg14
(lp439
(g16
g17
tp440
a(g19
I50
tp441
a(g21
g22
tp442
a(g24
I38
tp443
a(g26
g27
tp444
a(g29
g30
tp445
a(g32
g33
tp446
a(g35
g36
tp447
asbasg65
I930
sg8
S'Jack'
p448
sg67
(lp449
(iplayerTypes
tPlayer
p450
(dp451
g8
S'Dominic Thiem'
p452
sg10
I1
sg11
I0
sg12
S'm'
sg13
I45
sg14
(lp453
(g16
g17
tp454
a(g19
S'(47)'
tp455
a(g21
g22
tp456
a(g24
S'(24)'
tp457
a(g26
g77
tp458
a(g29
I21
tp459
a(g32
g100
tp460
a(g35
I24
tp461
asba(iplayerTypes
tPlayer
p462
(dp463
g8
S'Stan Wawrinka'
p464
sg10
I2
sg11
I1
sg12
S'm'
sg13
I253
sg14
(lp465
(g16
I77
tp466
a(g19
g43
tp467
a(g21
I67
tp468
a(g24
g46
tp469
a(g26
I44
tp470
a(g29
g124
tp471
a(g32
I65
tp472
a(g35
g88
tp473
asba(iplayerTypes
tPlayer
p474
(dp475
g8
S'Kei Nishikori'
p476
sg10
I3
sg11
I0
sg12
S'm'
sg13
I30
sg14
(lp477
(S'0/0/0'
S'(-)'
tp478
ag478
ag478
ag478
ag478
ag478
a(g32
I30
tp479
a(g35
g36
tp480
asba(iplayerTypes
tPlayer
p481
(dp482
g8
S'Andy Murray'
p483
sg10
I4
sg11
I0
sg12
S'm'
sg13
I197
sg14
(lp484
(g16
I43
tp485
a(g19
g43
tp486
a(g21
I68
tp487
a(g24
g46
tp488
a(g26
I50
tp489
a(g29
g124
tp490
a(g32
I36
tp491
a(g35
g36
tp492
asba(iplayerTypes
tPlayer
p493
(dp494
g8
S'Roger Federer'
p495
sg10
I5
sg11
I1
sg12
S'm'
sg13
I149
sg14
(lp496
(g16
I31
tp497
a(g19
g43
tp498
a(g21
I37
tp499
a(g24
g46
tp500
a(g26
I20
tp501
a(g29
g124
tp502
a(g32
I61
tp503
a(g35
g88
tp504
asbasba.