(lp1
(iplayerTypes
fPlayer
p2
(dp3
S'bench'
p4
(lp5
(iplayerTypes
tPlayer
p6
(dp7
S'name'
p8
S'Roger Federer'
p9
sS'attribute'
p10
I1
sS'alive'
p11
I1
sS'sex'
p12
S'm'
sS'points'
p13
I0
sS'history'
p14
(lp15
(S'1/16/2017'
p16
S'(54)'
tp17
asba(iplayerTypes
tPlayer
p18
(dp19
g8
S'Andy Murray'
p20
sg10
I2
sg11
I1
sg12
S'm'
sg13
I0
sg14
(lp21
(g16
S'(23)'
tp22
asbasS'total'
p23
I203
sg8
S'Ben'
p24
sS'team'
p25
(lp26
(iplayerTypes
tPlayer
p27
(dp28
g8
S'Nick Kyrgios'
p29
sg10
I1
sg11
I1
sg12
S'm'
sg13
I15
sg14
(lp30
(g16
I15
tp31
asba(iplayerTypes
tPlayer
p32
(dp33
g8
S'John Isner'
p34
sg10
I2
sg11
I1
sg12
S'm'
sg13
I98
sg14
(lp35
(g16
I98
tp36
asba(iplayerTypes
tPlayer
p37
(dp38
g8
S'Angelique Kerber'
p39
sg10
I3
sg11
I1
sg12
S'f'
sg13
I43
sg14
(lp40
(g16
I43
tp41
asba(iplayerTypes
tPlayer
p42
(dp43
g8
S'Stan Wawrinka'
p44
sg10
I4
sg11
I1
sg12
S'm'
sg13
I47
sg14
(lp45
(g16
I47
tp46
asba(iplayerTypes
tPlayer
p47
(dp48
g8
S'Novak Djokovic'
p49
sg10
I5
sg11
I1
sg12
S'm'
sg13
I0
sg14
(lp50
(g16
S'DNP'
p51
tp52
asbasba(iplayerTypes
fPlayer
p53
(dp54
g4
(lp55
(iplayerTypes
tPlayer
p56
(dp57
g8
S'Angelique Kerber'
p58
sg10
I4
sg11
I1
sg12
S'f'
sg13
I0
sg14
(lp59
(g16
S'(64)'
tp60
asba(iplayerTypes
tPlayer
p61
(dp62
g8
S'Dominic Thiem'
p63
sg10
I3
sg11
I1
sg12
S'm'
sg13
I0
sg14
(lp64
(g16
g51
tp65
asbasg23
I121
sg8
S'Santay'
p66
sg25
(lp67
(iplayerTypes
tPlayer
p68
(dp69
g8
S'Milos Raonic'
p70
sg10
I1
sg11
I1
sg12
S'm'
sg13
I0
sg14
(lp71
(g16
g51
tp72
asba(iplayerTypes
tPlayer
p73
(dp74
g8
S'Roger Federer'
p75
sg10
I2
sg11
I1
sg12
S'm'
sg13
I56
sg14
(lp76
(g16
I56
tp77
asba(iplayerTypes
tPlayer
p78
(dp79
g8
S'Rafael Nadal'
p80
sg10
I3
sg11
I1
sg12
S'm'
sg13
I0
sg14
(lp81
(g16
g51
tp82
asba(iplayerTypes
tPlayer
p83
(dp84
g8
S'Grigor Dimitrov'
p85
sg10
I4
sg11
I1
sg12
S'm'
sg13
I0
sg14
(lp86
(g16
g51
tp87
asba(iplayerTypes
tPlayer
p88
(dp89
g8
S'Kei Nishikori'
p90
sg10
I5
sg11
I1
sg12
S'm'
sg13
I65
sg14
(lp91
(g16
I65
tp92
asbasba(iplayerTypes
fPlayer
p93
(dp94
g4
(lp95
(iplayerTypes
tPlayer
p96
(dp97
g8
S'Rafael Nadal'
p98
sg10
I5
sg11
I1
sg12
S'm'
sg13
I0
sg14
(lp99
(g16
g51
tp100
asba(iplayerTypes
tPlayer
p101
(dp102
g8
S'Jo-Wilfried Tsonga'
p103
sg10
I1
sg11
I1
sg12
S'm'
sg13
I0
sg14
(lp104
(g16
S'(45)'
tp105
asbasg23
I169
sg8
S'Geoff'
p106
sg25
(lp107
(iplayerTypes
tPlayer
p108
(dp109
g8
S'Marin Cilic'
p110
sg10
I1
sg11
I1
sg12
S'm'
sg13
I54
sg14
(lp111
(g16
I54
tp112
asba(iplayerTypes
tPlayer
p113
(dp114
g8
S'Milos Raonic'
p115
sg10
I2
sg11
I1
sg12
S'm'
sg13
I0
sg14
(lp116
(g16
g51
tp117
asba(iplayerTypes
tPlayer
p118
(dp119
g8
S'Andy Murray'
p120
sg10
I3
sg11
I1
sg12
S'm'
sg13
I45
sg14
(lp121
(g16
I45
tp122
asba(iplayerTypes
tPlayer
p123
(dp124
g8
S'Novak Djokovic'
p125
sg10
I4
sg11
I1
sg12
S'm'
sg13
I0
sg14
(lp126
(g16
g51
tp127
asba(iplayerTypes
tPlayer
p128
(dp129
g8
S'Stan Wawrinka'
p130
sg10
I5
sg11
I1
sg12
S'm'
sg13
I70
sg14
(lp131
(g16
I70
tp132
asbasba(iplayerTypes
fPlayer
p133
(dp134
g4
(lp135
(iplayerTypes
tPlayer
p136
(dp137
g8
S'Gael Monfils'
p138
sg10
I2
sg11
I1
sg12
S'm'
sg13
I0
sg14
(lp139
(g16
g51
tp140
asba(iplayerTypes
tPlayer
p141
(dp142
g8
S'Dominic Thiem'
p143
sg10
I2
sg11
I1
sg12
S'm'
sg13
I0
sg14
(lp144
(g16
g51
tp145
asbasg23
I232
sg8
S'Jack'
p146
sg25
(lp147
(iplayerTypes
tPlayer
p148
(dp149
g8
S'John Isner'
p150
sg10
I1
sg11
I1
sg12
S'm'
sg13
I81
sg14
(lp151
(g16
I81
tp152
asba(iplayerTypes
tPlayer
p153
(dp154
g8
S'Stan Wawrinka'
p155
sg10
I2
sg11
I1
sg12
S'm'
sg13
I77
sg14
(lp156
(g16
I77
tp157
asba(iplayerTypes
tPlayer
p158
(dp159
g8
S'Novak Djokovic'
p160
sg10
I3
sg11
I1
sg12
S'm'
sg13
I0
sg14
(lp161
(g16
g51
tp162
asba(iplayerTypes
tPlayer
p163
(dp164
g8
S'Andy Murray'
p165
sg10
I4
sg11
I1
sg12
S'm'
sg13
I43
sg14
(lp166
(g16
I43
tp167
asba(iplayerTypes
tPlayer
p168
(dp169
g8
S'Roger Federer'
p170
sg10
I5
sg11
I1
sg12
S'm'
sg13
I31
sg14
(lp171
(g16
I31
tp172
asbasba(iplayerTypes
fPlayer
p173
(dp174
g4
(lp175
(iplayerTypes
tPlayer
p176
(dp177
g8
S'Tomas Berdych'
p178
sg10
I2
sg11
I1
sg12
S'm'
sg13
I0
sg14
(lp179
(g16
S'(10)'
tp180
asba(iplayerTypes
tPlayer
p181
(dp182
g8
S'Novak Djokovic'
p183
sg10
I2
sg11
I1
sg12
S'm'
sg13
I0
sg14
(lp184
(g16
g51
tp185
asbasg23
I136
sg8
S'Steve'
p186
sg25
(lp187
(iplayerTypes
tPlayer
p188
(dp189
g8
S'Ivo Karlovic'
p190
sg10
I1
sg11
I1
sg12
S'm'
sg13
I0
sg14
(lp191
(g16
g51
tp192
asba(iplayerTypes
tPlayer
p193
(dp194
g8
S'Marin Cilic'
p195
sg10
I2
sg11
I1
sg12
S'm'
sg13
I105
sg14
(lp196
(g16
I105
tp197
asba(iplayerTypes
tPlayer
p198
(dp199
g8
S'Serena Williams'
p200
sg10
I3
sg11
I1
sg12
S'f'
sg13
I0
sg14
(lp201
(g16
g51
tp202
asba(iplayerTypes
tPlayer
p203
(dp204
g8
S'Milos Raonic'
p205
sg10
I4
sg11
I1
sg12
S'm'
sg13
I0
sg14
(lp206
(g16
g51
tp207
asba(iplayerTypes
tPlayer
p208
(dp209
g8
S'Andy Murray'
p210
sg10
I5
sg11
I1
sg12
S'm'
sg13
I31
sg14
(lp211
(g16
I31
tp212
asbasba.