(lp1
(iplayerTypes
fPlayer
p2
(dp3
S'bench'
p4
(lp5
(iplayerTypes
tPlayer
p6
(dp7
S'name'
p8
S'Nick Kyrgios'
p9
sS'attribute'
p10
I1
sS'alive'
p11
I0
sS'sex'
p12
S'm'
sS'points'
p13
I15
sS'history'
p14
(lp15
(S'1/16/2017'
p16
I15
tp17
a(S'1/17/2017'
p18
S'DNP'
p19
tp20
a(S'1/18/2017'
p21
S'(60)'
tp22
a(S'1/19/2017'
p23
S'OUT'
p24
tp25
a(S'1/20/2017'
p26
S'OUT'
p27
tp28
a(S'1/21/2017'
p29
S'OUT'
p30
tp31
a(S'1/22/2017'
p32
S'OUT'
p33
tp34
a(S'1/23/2017'
p35
S'OUT'
p36
tp37
a(S'1/24/2017'
p38
S'OUT'
p39
tp40
a(S'1/25/2017'
p41
S'OUT'
p42
tp43
a(S'1/26/2017'
p44
S'OUT'
p45
tp46
a(S'1/27/2017'
p47
S'OUT'
p48
tp49
a(S'1/27/2017'
p50
S'OUT'
p51
tp52
a(S'1/29/2017'
p53
S'OUT'
p54
tp55
asba(iplayerTypes
tPlayer
p56
(dp57
g8
S'John Isner'
p58
sg10
I2
sg11
I0
sg12
S'm'
sg13
I229
sg14
(lp59
(g16
I98
tp60
a(g18
g19
tp61
a(g21
I131
tp62
a(g23
g24
tp63
a(g26
g27
tp64
a(g29
g30
tp65
a(g32
g33
tp66
a(g35
g36
tp67
a(g38
g39
tp68
a(g41
g42
tp69
a(g44
g45
tp70
a(g47
g48
tp71
a(g50
g51
tp72
a(g53
g54
tp73
asba(iplayerTypes
tPlayer
p74
(dp75
g8
S'Novak Djokovic'
p76
sg10
I5
sg11
I0
sg12
S'm'
sg13
I107
sg14
(lp77
(g16
S'DNP'
p78
tp79
a(g18
I39
tp80
a(g21
S'DNP'
p81
tp82
a(g23
I68
tp83
a(g26
g27
tp84
a(g29
g30
tp85
a(g32
g33
tp86
a(g35
g36
tp87
a(g38
g39
tp88
a(g41
g42
tp89
a(g44
g45
tp90
a(g47
g48
tp91
a(g50
g51
tp92
a(g53
g54
tp93
asbasS'total'
p94
I1370
sg8
S'Ben'
p95
sS'team'
p96
(lp97
(iplayerTypes
tPlayer
p98
(dp99
g8
S'Roger Federer'
p100
sg10
I1
sg11
I1
sg12
S'm'
sg13
I165
sg14
(lp101
(g16
S'(54)'
tp102
a(g18
g19
tp103
a(g21
I45
tp104
a(g23
S'DNP'
p105
tp106
a(g26
I18
tp107
a(g29
S'DNP'
p108
tp109
a(g32
I54
tp110
a(g35
S'DNP'
p111
tp112
a(g38
I24
tp113
a(g41
S'DNP'
p114
tp115
a(g44
I24
tp116
a(g47
S'DNP'
p117
tp118
a(g50
S'DNP'
p119
tp120
a(g53
S'DNP'
p121
tp122
asba(iplayerTypes
tPlayer
p123
(dp124
g8
S'Andy Murray'
p125
sg10
I2
sg11
I0
sg12
S'm'
sg13
I172
sg14
(lp126
(g16
S'(23)'
tp127
a(g18
g19
tp128
a(g21
S'(36)'
tp129
a(g23
g105
tp130
a(g26
I58
tp131
a(g29
g108
tp132
a(g32
I114
tp133
a(g35
g36
tp134
a(g38
g39
tp135
a(g41
g42
tp136
a(g44
g45
tp137
a(g47
g48
tp138
a(g50
g51
tp139
a(g53
g54
tp140
asba(iplayerTypes
tPlayer
p141
(dp142
g8
S'Angelique Kerber'
p143
sg10
I3
sg11
I0
sg12
S'f'
sg13
I177
sg14
(lp144
(g16
I43
tp145
a(g18
g19
tp146
a(g21
I47
tp147
a(g23
g105
tp148
a(g26
I53
tp149
a(g29
g108
tp150
a(g32
I34
tp151
a(g35
g36
tp152
a(g38
g39
tp153
a(g41
g42
tp154
a(g44
g45
tp155
a(g47
g48
tp156
a(g50
g51
tp157
a(g53
g54
tp158
asba(iplayerTypes
tPlayer
p159
(dp160
g8
S'Stan Wawrinka'
p161
sg10
I4
sg11
I0
sg12
S'm'
sg13
I357
sg14
(lp162
(g16
I47
tp163
a(g18
g19
tp164
a(g21
I56
tp165
a(g23
g105
tp166
a(g26
I52
tp167
a(g29
g108
tp168
a(g32
I67
tp169
a(g35
g111
tp170
a(g38
I65
tp171
a(g41
g114
tp172
a(g44
I70
tp173
a(g47
g48
tp174
a(g50
g51
tp175
a(g53
g54
tp176
asba(iplayerTypes
tPlayer
p177
(dp178
g8
S'Grigor Dimitrov'
p179
sg10
I5
sg11
I0
sg12
S'm'
sg13
I148
sg14
(lp180
(S'0/0/0'
S'(-)'
tp181
ag181
ag181
ag181
ag181
ag181
a(g32
S'DNP'
p182
tp183
a(g35
I39
tp184
a(g38
S'DNP'
p185
tp186
a(g41
I64
tp187
a(g44
S'DNP'
p188
tp189
a(g47
g117
tp190
a(g50
I45
tp191
a(g53
g54
tp192
asbasba(iplayerTypes
fPlayer
p193
(dp194
g4
(lp195
(iplayerTypes
tPlayer
p196
(dp197
g8
S'Dominic Thiem'
p198
sg10
I3
sg11
I0
sg12
S'm'
sg13
I78
sg14
(lp199
(g16
g78
tp200
a(g18
S'(39)'
tp201
a(g21
g81
tp202
a(g23
S'(43)'
tp203
a(g26
S'DNP'
p204
tp205
a(g29
I45
tp206
a(g32
g182
tp207
a(g35
I33
tp208
a(g38
g39
tp209
a(g41
g42
tp210
a(g44
g45
tp211
a(g47
g48
tp212
a(g50
g51
tp213
a(g53
g54
tp214
asba(iplayerTypes
tPlayer
p215
(dp216
g8
S'Angelique Kerber'
p217
sg10
I4
sg11
I0
sg12
S'f'
sg13
I151
sg14
(lp218
(g16
S'(64)'
tp219
a(g18
g19
tp220
a(g21
I51
tp221
a(g23
g105
tp222
a(g26
I61
tp223
a(g29
g108
tp224
a(g32
I39
tp225
a(g35
g36
tp226
a(g38
g39
tp227
a(g41
g42
tp228
a(g44
g45
tp229
a(g47
g48
tp230
a(g50
g51
tp231
a(g53
g54
tp232
asbasg94
I1365
sg8
S'Santay'
p233
sg96
(lp234
(iplayerTypes
tPlayer
p235
(dp236
g8
S'Milos Raonic'
p237
sg10
I1
sg11
I0
sg12
S'm'
sg13
I255
sg14
(lp238
(g16
g78
tp239
a(g18
I39
tp240
a(g21
g81
tp241
a(g23
I54
tp242
a(g26
g204
tp243
a(g29
I54
tp244
a(g32
g182
tp245
a(g35
I72
tp246
a(g38
g185
tp247
a(g41
I36
tp248
a(g44
g45
tp249
a(g47
g48
tp250
a(g50
g51
tp251
a(g53
g54
tp252
asba(iplayerTypes
tPlayer
p253
(dp254
g8
S'Roger Federer'
p255
sg10
I2
sg11
I1
sg12
S'm'
sg13
I454
sg14
(lp256
(g16
I56
tp257
a(g18
g19
tp258
a(g21
I55
tp259
a(g23
g105
tp260
a(g26
I63
tp261
a(g29
g108
tp262
a(g32
I119
tp263
a(g35
g111
tp264
a(g38
I117
tp265
a(g41
g114
tp266
a(g44
I44
tp267
a(g47
g117
tp268
a(g50
g119
tp269
a(g53
g121
tp270
asba(iplayerTypes
tPlayer
p271
(dp272
g8
S'Rafael Nadal'
p273
sg10
I3
sg11
I1
sg12
S'm'
sg13
I124
sg14
(lp274
(g16
g78
tp275
a(g18
I38
tp276
a(g21
g81
tp277
a(g23
I50
tp278
a(g26
g204
tp279
a(g29
S'(40)'
tp280
a(g32
g182
tp281
a(g35
S'(43)'
tp282
a(g38
g185
tp283
a(g41
S'(36)'
tp284
a(g44
g188
tp285
a(g47
g117
tp286
a(g50
I36
tp287
a(g53
g121
tp288
asba(iplayerTypes
tPlayer
p289
(dp290
g8
S'Grigor Dimitrov'
p291
sg10
I4
sg11
I0
sg12
S'm'
sg13
I111
sg14
(lp292
(g16
g78
tp293
a(g18
I62
tp294
a(g21
g81
tp295
a(g23
S'(54)'
tp296
a(g26
g204
tp297
a(g29
S'(35)'
tp298
a(g32
g182
tp299
a(g35
S'(62)'
tp300
a(g38
g185
tp301
a(g41
S'(43)'
tp302
a(g44
g188
tp303
a(g47
g117
tp304
a(g50
I49
tp305
a(g53
g54
tp306
asba(iplayerTypes
tPlayer
p307
(dp308
g8
S'Kei Nishikori'
p309
sg10
I5
sg11
I0
sg12
S'm'
sg13
I192
sg14
(lp310
(g16
I65
tp311
a(g18
g19
tp312
a(g21
I56
tp313
a(g23
g105
tp314
a(g26
I22
tp315
a(g29
g108
tp316
a(g32
I49
tp317
a(g35
g36
tp318
a(g38
g39
tp319
a(g41
g42
tp320
a(g44
g45
tp321
a(g47
g48
tp322
a(g50
g51
tp323
a(g53
g54
tp324
asbasba(iplayerTypes
fPlayer
p325
(dp326
g4
(lp327
(iplayerTypes
tPlayer
p328
(dp329
g8
S'Novak Djokovic'
p330
sg10
I2
sg11
I0
sg12
S'm'
sg13
I0
sg14
(lp331
(g16
g78
tp332
a(g18
S'(14)'
tp333
a(g21
g81
tp334
a(g23
S'(64)'
tp335
a(g26
g27
tp336
a(g29
g30
tp337
a(g32
g33
tp338
a(g35
g36
tp339
a(g38
g39
tp340
a(g41
g42
tp341
a(g44
g45
tp342
a(g47
g48
tp343
a(g50
g51
tp344
a(g53
g54
tp345
asba(iplayerTypes
tPlayer
p346
(dp347
g8
S'Tomas Berdych'
p348
sg10
I2
sg11
I0
sg12
S'm'
sg13
I38
sg14
(lp349
(g16
S'(10)'
tp350
a(g18
g19
tp351
a(g21
S'(43)'
tp352
a(g23
g105
tp353
a(g26
I38
tp354
a(g29
g30
tp355
a(g32
g33
tp356
a(g35
g36
tp357
a(g38
g39
tp358
a(g41
g42
tp359
a(g44
g45
tp360
a(g47
g48
tp361
a(g50
g51
tp362
a(g53
g54
tp363
asba(iplayerTypes
tPlayer
p364
(dp365
g8
S'Marin Cilic'
p366
sg10
I2
sg11
I0
sg12
S'm'
sg13
I146
sg14
(lp367
(g16
I105
tp368
a(g18
g19
tp369
a(g21
I41
tp370
a(g23
g24
tp371
a(g26
g27
tp372
a(g29
g30
tp373
a(g32
g33
tp374
a(g35
g36
tp375
a(g38
g39
tp376
a(g41
g42
tp377
a(g44
g45
tp378
a(g47
g48
tp379
a(g50
g51
tp380
a(g53
g54
tp381
asbasg94
I1341
sg8
S'Steve'
p382
sg96
(lp383
(iplayerTypes
tPlayer
p384
(dp385
g8
S'Ivo Karlovic'
p386
sg10
I1
sg11
I0
sg12
S'm'
sg13
I291
sg14
(lp387
(g16
g78
tp388
a(g18
I189
tp389
a(g21
g81
tp390
a(g23
I36
tp391
a(g26
g204
tp392
a(g29
I66
tp393
a(g32
g33
tp394
a(g35
g36
tp395
a(g38
g39
tp396
a(g41
g42
tp397
a(g44
g45
tp398
a(g47
g48
tp399
a(g50
g51
tp400
a(g53
g54
tp401
asba(iplayerTypes
tPlayer
p402
(dp403
g8
S'Jo-Wilfried Tsonga'
p404
sg10
I2
sg11
I0
sg12
S'm'
sg13
I104
sg14
(lp405
(S'0/0/0'
S'(-)'
tp406
ag406
ag406
ag406
ag406
ag406
a(g32
I89
tp407
a(g35
g111
tp408
a(g38
I15
tp409
a(g41
g42
tp410
a(g44
g45
tp411
a(g47
g48
tp412
a(g50
g51
tp413
a(g53
g54
tp414
asba(iplayerTypes
tPlayer
p415
(dp416
g8
S'Serena Williams'
p417
sg10
I3
sg11
I1
sg12
S'f'
sg13
I337
sg14
(lp418
(g16
g78
tp419
a(g18
I46
tp420
a(g21
g81
tp421
a(g23
I38
tp422
a(g26
g204
tp423
a(g29
I54
tp424
a(g32
g182
tp425
a(g35
I51
tp426
a(g38
g185
tp427
a(g41
I48
tp428
a(g44
I55
tp429
a(g47
g117
tp430
a(g50
g119
tp431
a(g53
I45
tp432
asba(iplayerTypes
tPlayer
p433
(dp434
g8
S'Milos Raonic'
p435
sg10
I4
sg11
I0
sg12
S'm'
sg13
I286
sg14
(lp436
(g16
g78
tp437
a(g18
I62
tp438
a(g21
g81
tp439
a(g23
I59
tp440
a(g26
g204
tp441
a(g29
I61
tp442
a(g32
g182
tp443
a(g35
I48
tp444
a(g38
g185
tp445
a(g41
I56
tp446
a(g44
g45
tp447
a(g47
g48
tp448
a(g50
g51
tp449
a(g53
g54
tp450
asba(iplayerTypes
tPlayer
p451
(dp452
g8
S'Andy Murray'
p453
sg10
I5
sg11
I0
sg12
S'm'
sg13
I139
sg14
(lp454
(g16
I31
tp455
a(g18
g19
tp456
a(g21
I30
tp457
a(g23
g105
tp458
a(g26
I32
tp459
a(g29
g108
tp460
a(g32
I46
tp461
a(g35
g36
tp462
a(g38
g39
tp463
a(g41
g42
tp464
a(g44
g45
tp465
a(g47
g48
tp466
a(g50
g51
tp467
a(g53
g54
tp468
asbasba(iplayerTypes
fPlayer
p469
(dp470
g4
(lp471
(iplayerTypes
tPlayer
p472
(dp473
g8
S'Marin Cilic'
p474
sg10
I1
sg11
I0
sg12
S'm'
sg13
I84
sg14
(lp475
(g16
I54
tp476
a(g18
g19
tp477
a(g21
I30
tp478
a(g23
g24
tp479
a(g26
g27
tp480
a(g29
g30
tp481
a(g32
g33
tp482
a(g35
g36
tp483
a(g38
g39
tp484
a(g41
g42
tp485
a(g44
g45
tp486
a(g47
g48
tp487
a(g50
g51
tp488
a(g53
g54
tp489
asba(iplayerTypes
tPlayer
p490
(dp491
g8
S'Novak Djokovic'
p492
sg10
I4
sg11
I0
sg12
S'm'
sg13
I105
sg14
(lp493
(g16
g78
tp494
a(g18
I50
tp495
a(g21
g81
tp496
a(g23
I55
tp497
a(g26
g27
tp498
a(g29
g30
tp499
a(g32
g33
tp500
a(g35
g36
tp501
a(g38
g39
tp502
a(g41
g42
tp503
a(g44
g45
tp504
a(g47
g48
tp505
a(g50
g51
tp506
a(g53
g54
tp507
asba(iplayerTypes
tPlayer
p508
(dp509
g8
S'Stan Wawrinka'
p510
sg10
I5
sg11
I0
sg12
S'm'
sg13
I234
sg14
(lp511
(g16
I70
tp512
a(g18
g19
tp513
a(g21
I40
tp514
a(g23
g105
tp515
a(g26
I40
tp516
a(g29
g108
tp517
a(g32
I14
tp518
a(g35
g111
tp519
a(g38
I37
tp520
a(g41
g114
tp521
a(g44
I33
tp522
a(g47
g48
tp523
a(g50
g51
tp524
a(g53
g54
tp525
asbasg94
I1140
sg8
S'Geoff'
p526
sg96
(lp527
(iplayerTypes
tPlayer
p528
(dp529
g8
S'Jo-Wilfried Tsonga'
p530
sg10
I1
sg11
I0
sg12
S'm'
sg13
I111
sg14
(lp531
(g16
S'(45)'
tp532
a(g18
g19
tp533
a(g21
S'(39)'
tp534
a(g23
g105
tp535
a(g26
I54
tp536
a(g29
g108
tp537
a(g32
I45
tp538
a(g35
g111
tp539
a(g38
I12
tp540
a(g41
g42
tp541
a(g44
g45
tp542
a(g47
g48
tp543
a(g50
g51
tp544
a(g53
g54
tp545
asba(iplayerTypes
tPlayer
p546
(dp547
g8
S'Milos Raonic'
p548
sg10
I2
sg11
I0
sg12
S'm'
sg13
I381
sg14
(lp549
(g16
g78
tp550
a(g18
I67
tp551
a(g21
g81
tp552
a(g23
I97
tp553
a(g26
g204
tp554
a(g29
I76
tp555
a(g32
g182
tp556
a(g35
I95
tp557
a(g38
g185
tp558
a(g41
I46
tp559
a(g44
g45
tp560
a(g47
g48
tp561
a(g50
g51
tp562
a(g53
g54
tp563
asba(iplayerTypes
tPlayer
p564
(dp565
g8
S'Andy Murray'
p566
sg10
I3
sg11
I0
sg12
S'm'
sg13
I180
sg14
(lp567
(g16
I45
tp568
a(g18
g19
tp569
a(g21
I49
tp570
a(g23
g105
tp571
a(g26
I45
tp572
a(g29
g108
tp573
a(g32
I41
tp574
a(g35
g36
tp575
a(g38
g39
tp576
a(g41
g42
tp577
a(g44
g45
tp578
a(g47
g48
tp579
a(g50
g51
tp580
a(g53
g54
tp581
asba(iplayerTypes
tPlayer
p582
(dp583
g8
S'Dominic Thiem'
p584
sg10
I4
sg11
I0
sg12
S'm'
sg13
I45
sg14
(lp585
(S'0/0/0'
S'(-)'
tp586
ag586
ag586
ag586
ag586
ag586
a(g32
g182
tp587
a(g35
I45
tp588
a(g38
g39
tp589
a(g41
g42
tp590
a(g44
g45
tp591
a(g47
g48
tp592
a(g50
g51
tp593
a(g53
g54
tp594
asba(iplayerTypes
tPlayer
p595
(dp596
g8
S'Rafael Nadal'
p597
sg10
I5
sg11
I1
sg12
S'm'
sg13
I0
sg14
(lp598
(g16
g78
tp599
a(g18
S'(15)'
tp600
a(g21
g81
tp601
a(g23
S'(47)'
tp602
a(g26
g204
tp603
a(g29
S'(44)'
tp604
a(g32
g182
tp605
a(g35
S'(36)'
tp606
a(g38
g185
tp607
a(g41
S'(30)'
tp608
a(g44
g188
tp609
a(g47
g117
tp610
a(g50
S'(73)'
tp611
a(g53
g121
tp612
asbasba(iplayerTypes
fPlayer
p613
(dp614
g4
(lp615
(iplayerTypes
tPlayer
p616
(dp617
g8
S'Gael Monfils'
p618
sg10
I2
sg11
I0
sg12
S'm'
sg13
I0
sg14
(lp619
(g16
g78
tp620
a(g18
S'(47)'
tp621
a(g21
g81
tp622
a(g23
S'(42)'
tp623
a(g26
g204
tp624
a(g29
S'(25)'
tp625
a(g32
g182
tp626
a(g35
S'(40)'
tp627
a(g38
g39
tp628
a(g41
g42
tp629
a(g44
g45
tp630
a(g47
g48
tp631
a(g50
g51
tp632
a(g53
g54
tp633
asba(iplayerTypes
tPlayer
p634
(dp635
g8
S'John Isner'
p636
sg10
I1
sg11
I0
sg12
S'm'
sg13
I168
sg14
(lp637
(g16
I81
tp638
a(g18
g19
tp639
a(g21
I87
tp640
a(g23
g24
tp641
a(g26
g27
tp642
a(g29
g30
tp643
a(g32
g33
tp644
a(g35
g36
tp645
a(g38
g39
tp646
a(g41
g42
tp647
a(g44
g45
tp648
a(g47
g48
tp649
a(g50
g51
tp650
a(g53
g54
tp651
asba(iplayerTypes
tPlayer
p652
(dp653
g8
S'Novak Djokovic'
p654
sg10
I3
sg11
I0
sg12
S'm'
sg13
I88
sg14
(lp655
(g16
g78
tp656
a(g18
I50
tp657
a(g21
g81
tp658
a(g23
I38
tp659
a(g26
g27
tp660
a(g29
g30
tp661
a(g32
g33
tp662
a(g35
g36
tp663
a(g38
g39
tp664
a(g41
g42
tp665
a(g44
g45
tp666
a(g47
g48
tp667
a(g50
g51
tp668
a(g53
g54
tp669
asbasg94
I1119
sg8
S'Jack'
p670
sg96
(lp671
(iplayerTypes
tPlayer
p672
(dp673
g8
S'Dominic Thiem'
p674
sg10
I1
sg11
I0
sg12
S'm'
sg13
I45
sg14
(lp675
(g16
g78
tp676
a(g18
S'(47)'
tp677
a(g21
g81
tp678
a(g23
S'(24)'
tp679
a(g26
g204
tp680
a(g29
I21
tp681
a(g32
g182
tp682
a(g35
I24
tp683
a(g38
g39
tp684
a(g41
g42
tp685
a(g44
g45
tp686
a(g47
g48
tp687
a(g50
g51
tp688
a(g53
g54
tp689
asba(iplayerTypes
tPlayer
p690
(dp691
g8
S'Stan Wawrinka'
p692
sg10
I2
sg11
I0
sg12
S'm'
sg13
I362
sg14
(lp693
(g16
I77
tp694
a(g18
g19
tp695
a(g21
I67
tp696
a(g23
g105
tp697
a(g26
I44
tp698
a(g29
g108
tp699
a(g32
I65
tp700
a(g35
g111
tp701
a(g38
I54
tp702
a(g41
g114
tp703
a(g44
I55
tp704
a(g47
g48
tp705
a(g50
g51
tp706
a(g53
g54
tp707
asba(iplayerTypes
tPlayer
p708
(dp709
g8
S'Kei Nishikori'
p710
sg10
I3
sg11
I0
sg12
S'm'
sg13
I30
sg14
(lp711
(S'0/0/0'
S'(-)'
tp712
ag712
ag712
ag712
ag712
ag712
a(g32
I30
tp713
a(g35
g36
tp714
a(g38
g39
tp715
a(g41
g42
tp716
a(g44
g45
tp717
a(g47
g48
tp718
a(g50
g51
tp719
a(g53
g54
tp720
asba(iplayerTypes
tPlayer
p721
(dp722
g8
S'Andy Murray'
p723
sg10
I4
sg11
I0
sg12
S'm'
sg13
I197
sg14
(lp724
(g16
I43
tp725
a(g18
g19
tp726
a(g21
I68
tp727
a(g23
g105
tp728
a(g26
I50
tp729
a(g29
g108
tp730
a(g32
I36
tp731
a(g35
g36
tp732
a(g38
g39
tp733
a(g41
g42
tp734
a(g44
g45
tp735
a(g47
g48
tp736
a(g50
g51
tp737
a(g53
g54
tp738
asba(iplayerTypes
tPlayer
p739
(dp740
g8
S'Roger Federer'
p741
sg10
I5
sg11
I1
sg12
S'm'
sg13
I229
sg14
(lp742
(g16
I31
tp743
a(g18
g19
tp744
a(g21
I37
tp745
a(g23
g105
tp746
a(g26
I20
tp747
a(g29
g108
tp748
a(g32
I61
tp749
a(g35
g111
tp750
a(g38
I32
tp751
a(g41
g114
tp752
a(g44
I48
tp753
a(g47
g117
tp754
a(g50
g119
tp755
a(g53
g121
tp756
asbasba.