(lp1
(iplayerTypes
fPlayer
p2
(dp3
S'bench'
p4
(lp5
(iplayerTypes
tPlayer
p6
(dp7
S'name'
p8
S'Roger Federer'
p9
sS'attribute'
p10
I4
sS'alive'
p11
I1
sS'sex'
p12
S'm'
sS'points'
p13
I0
sS'history'
p14
(lp15
sba(iplayerTypes
tPlayer
p16
(dp17
g8
S'Dominic Thiem'
p18
sg10
I3
sg11
I1
sg12
S'm'
sg13
I0
sg14
(lp19
sba(iplayerTypes
tPlayer
p20
(dp21
g8
VDavid Ferrer
p22
sg10
I2
sg11
I1
sg12
S'm'
sg13
I0
sg14
(lp23
sbasS'total'
p24
I0
sg8
S'Ben'
p25
sS'team'
p26
(lp27
(iplayerTypes
tPlayer
p28
(dp29
g8
S'Novak Djokovic'
p30
sg10
I1
sg11
I1
sg12
S'm'
sg13
I0
sg14
(lp31
sba(iplayerTypes
tPlayer
p32
(dp33
g8
S'Stanislas Wawrinka'
p34
sg10
I2
sg11
I1
sg12
S'm'
sg13
I0
sg14
(lp35
sba(iplayerTypes
tPlayer
p36
(dp37
g8
S'Gael Monfils'
p38
sg10
I3
sg11
I1
sg12
S'm'
sg13
I0
sg14
(lp39
sba(iplayerTypes
tPlayer
p40
(dp41
g8
S'Milos Raonic'
p42
sg10
I4
sg11
I1
sg12
S'm'
sg13
I0
sg14
(lp43
sba(iplayerTypes
tPlayer
p44
(dp45
g8
S'Kei Niskikori'
p46
sg10
I5
sg11
I1
sg12
S'm'
sg13
I0
sg14
(lp47
sbasba.