(lp1
(iplayerTypes
fPlayer
p2
(dp3
S'bench'
p4
(lp5
(iplayerTypes
tPlayer
p6
(dp7
S'name'
p8
S'Tomas Berdych'
p9
sS'attribute'
p10
I2
sS'alive'
p11
I1
sS'sex'
p12
S'm'
sS'points'
p13
I0
sS'history'
p14
(lp15
(S'1/16/2017'
p16
S'(10)'
tp17
a(S'1/17/2017'
p18
S'DNP'
p19
tp20
asba(iplayerTypes
tPlayer
p21
(dp22
g8
S'Novak Djokovic'
p23
sg10
I2
sg11
I1
sg12
S'm'
sg13
I0
sg14
(lp24
(g16
S'DNP'
p25
tp26
a(g18
S'(14)'
tp27
asbasS'total'
p28
I433
sg8
S'Steve'
p29
sS'team'
p30
(lp31
(iplayerTypes
tPlayer
p32
(dp33
g8
S'Ivo Karlovic'
p34
sg10
I1
sg11
I1
sg12
S'm'
sg13
I189
sg14
(lp35
(g16
g25
tp36
a(g18
I189
tp37
asba(iplayerTypes
tPlayer
p38
(dp39
g8
S'Marin Cilic'
p40
sg10
I2
sg11
I1
sg12
S'm'
sg13
I105
sg14
(lp41
(g16
I105
tp42
a(g18
g19
tp43
asba(iplayerTypes
tPlayer
p44
(dp45
g8
S'Serena Williams'
p46
sg10
I3
sg11
I1
sg12
S'f'
sg13
I46
sg14
(lp47
(g16
g25
tp48
a(g18
I46
tp49
asba(iplayerTypes
tPlayer
p50
(dp51
g8
S'Milos Raonic'
p52
sg10
I4
sg11
I1
sg12
S'm'
sg13
I62
sg14
(lp53
(g16
g25
tp54
a(g18
I62
tp55
asba(iplayerTypes
tPlayer
p56
(dp57
g8
S'Andy Murray'
p58
sg10
I5
sg11
I1
sg12
S'm'
sg13
I31
sg14
(lp59
(g16
I31
tp60
a(g18
g19
tp61
asbasba(iplayerTypes
fPlayer
p62
(dp63
g4
(lp64
(iplayerTypes
tPlayer
p65
(dp66
g8
S'Rafael Nadal'
p67
sg10
I5
sg11
I1
sg12
S'm'
sg13
I0
sg14
(lp68
(g16
g25
tp69
a(g18
S'(15)'
tp70
asba(iplayerTypes
tPlayer
p71
(dp72
g8
S'Jo-Wilfried Tsonga'
p73
sg10
I1
sg11
I1
sg12
S'm'
sg13
I0
sg14
(lp74
(g16
S'(45)'
tp75
a(g18
g19
tp76
asbasg28
I286
sg8
S'Geoff'
p77
sg30
(lp78
(iplayerTypes
tPlayer
p79
(dp80
g8
S'Marin Cilic'
p81
sg10
I1
sg11
I1
sg12
S'm'
sg13
I54
sg14
(lp82
(g16
I54
tp83
a(g18
g19
tp84
asba(iplayerTypes
tPlayer
p85
(dp86
g8
S'Milos Raonic'
p87
sg10
I2
sg11
I1
sg12
S'm'
sg13
I67
sg14
(lp88
(g16
g25
tp89
a(g18
I67
tp90
asba(iplayerTypes
tPlayer
p91
(dp92
g8
S'Andy Murray'
p93
sg10
I3
sg11
I1
sg12
S'm'
sg13
I45
sg14
(lp94
(g16
I45
tp95
a(g18
g19
tp96
asba(iplayerTypes
tPlayer
p97
(dp98
g8
S'Novak Djokovic'
p99
sg10
I4
sg11
I1
sg12
S'm'
sg13
I50
sg14
(lp100
(g16
g25
tp101
a(g18
I50
tp102
asba(iplayerTypes
tPlayer
p103
(dp104
g8
S'Stan Wawrinka'
p105
sg10
I5
sg11
I1
sg12
S'm'
sg13
I70
sg14
(lp106
(g16
I70
tp107
a(g18
g19
tp108
asbasba(iplayerTypes
fPlayer
p109
(dp110
g4
(lp111
(iplayerTypes
tPlayer
p112
(dp113
g8
S'Gael Monfils'
p114
sg10
I2
sg11
I1
sg12
S'm'
sg13
I0
sg14
(lp115
(g16
g25
tp116
a(g18
S'(47)'
tp117
asba(iplayerTypes
tPlayer
p118
(dp119
g8
S'Dominic Thiem'
p120
sg10
I2
sg11
I1
sg12
S'm'
sg13
I0
sg14
(lp121
(g16
g25
tp122
a(g18
S'(47)'
tp123
asbasg28
I282
sg8
S'Jack'
p124
sg30
(lp125
(iplayerTypes
tPlayer
p126
(dp127
g8
S'John Isner'
p128
sg10
I1
sg11
I1
sg12
S'm'
sg13
I81
sg14
(lp129
(g16
I81
tp130
a(g18
g19
tp131
asba(iplayerTypes
tPlayer
p132
(dp133
g8
S'Stan Wawrinka'
p134
sg10
I2
sg11
I1
sg12
S'm'
sg13
I77
sg14
(lp135
(g16
I77
tp136
a(g18
g19
tp137
asba(iplayerTypes
tPlayer
p138
(dp139
g8
S'Novak Djokovic'
p140
sg10
I3
sg11
I1
sg12
S'm'
sg13
I50
sg14
(lp141
(g16
g25
tp142
a(g18
I50
tp143
asba(iplayerTypes
tPlayer
p144
(dp145
g8
S'Andy Murray'
p146
sg10
I4
sg11
I1
sg12
S'm'
sg13
I43
sg14
(lp147
(g16
I43
tp148
a(g18
g19
tp149
asba(iplayerTypes
tPlayer
p150
(dp151
g8
S'Roger Federer'
p152
sg10
I5
sg11
I1
sg12
S'm'
sg13
I31
sg14
(lp153
(g16
I31
tp154
a(g18
g19
tp155
asbasba(iplayerTypes
fPlayer
p156
(dp157
g4
(lp158
(iplayerTypes
tPlayer
p159
(dp160
g8
S'Angelique Kerber'
p161
sg10
I4
sg11
I1
sg12
S'f'
sg13
I0
sg14
(lp162
(g16
S'(64)'
tp163
a(g18
g19
tp164
asba(iplayerTypes
tPlayer
p165
(dp166
g8
S'Dominic Thiem'
p167
sg10
I3
sg11
I1
sg12
S'm'
sg13
I0
sg14
(lp168
(g16
g25
tp169
a(g18
S'(39)'
tp170
asbasg28
I260
sg8
S'Santay'
p171
sg30
(lp172
(iplayerTypes
tPlayer
p173
(dp174
g8
S'Milos Raonic'
p175
sg10
I1
sg11
I1
sg12
S'm'
sg13
I39
sg14
(lp176
(g16
g25
tp177
a(g18
I39
tp178
asba(iplayerTypes
tPlayer
p179
(dp180
g8
S'Roger Federer'
p181
sg10
I2
sg11
I1
sg12
S'm'
sg13
I56
sg14
(lp182
(g16
I56
tp183
a(g18
g19
tp184
asba(iplayerTypes
tPlayer
p185
(dp186
g8
S'Rafael Nadal'
p187
sg10
I3
sg11
I1
sg12
S'm'
sg13
I38
sg14
(lp188
(g16
g25
tp189
a(g18
I38
tp190
asba(iplayerTypes
tPlayer
p191
(dp192
g8
S'Grigor Dimitrov'
p193
sg10
I4
sg11
I1
sg12
S'm'
sg13
I62
sg14
(lp194
(g16
g25
tp195
a(g18
I62
tp196
asba(iplayerTypes
tPlayer
p197
(dp198
g8
S'Kei Nishikori'
p199
sg10
I5
sg11
I1
sg12
S'm'
sg13
I65
sg14
(lp200
(g16
I65
tp201
a(g18
g19
tp202
asbasba(iplayerTypes
fPlayer
p203
(dp204
g4
(lp205
(iplayerTypes
tPlayer
p206
(dp207
g8
S'Roger Federer'
p208
sg10
I1
sg11
I1
sg12
S'm'
sg13
I0
sg14
(lp209
(g16
S'(54)'
tp210
a(g18
g19
tp211
asba(iplayerTypes
tPlayer
p212
(dp213
g8
S'Andy Murray'
p214
sg10
I2
sg11
I1
sg12
S'm'
sg13
I0
sg14
(lp215
(g16
S'(23)'
tp216
a(g18
g19
tp217
asbasg28
I242
sg8
S'Ben'
p218
sg30
(lp219
(iplayerTypes
tPlayer
p220
(dp221
g8
S'Nick Kyrgios'
p222
sg10
I1
sg11
I1
sg12
S'm'
sg13
I15
sg14
(lp223
(g16
I15
tp224
a(g18
g19
tp225
asba(iplayerTypes
tPlayer
p226
(dp227
g8
S'John Isner'
p228
sg10
I2
sg11
I1
sg12
S'm'
sg13
I98
sg14
(lp229
(g16
I98
tp230
a(g18
g19
tp231
asba(iplayerTypes
tPlayer
p232
(dp233
g8
S'Angelique Kerber'
p234
sg10
I3
sg11
I1
sg12
S'f'
sg13
I43
sg14
(lp235
(g16
I43
tp236
a(g18
g19
tp237
asba(iplayerTypes
tPlayer
p238
(dp239
g8
S'Stan Wawrinka'
p240
sg10
I4
sg11
I1
sg12
S'm'
sg13
I47
sg14
(lp241
(g16
I47
tp242
a(g18
g19
tp243
asba(iplayerTypes
tPlayer
p244
(dp245
g8
S'Novak Djokovic'
p246
sg10
I5
sg11
I1
sg12
S'm'
sg13
I39
sg14
(lp247
(g16
g25
tp248
a(g18
I39
tp249
asbasba.