(lp1
(iplayerTypes
fPlayer
p2
(dp3
S'bench'
p4
(lp5
(iplayerTypes
tPlayer
p6
(dp7
S'name'
p8
S'Roger Federer'
p9
sS'attribute'
p10
I1
sS'alive'
p11
I1
sS'sex'
p12
S'm'
sS'points'
p13
I0
sS'history'
p14
(lp15
sba(iplayerTypes
tPlayer
p16
(dp17
g8
S'Andy Murray'
p18
sg10
I2
sg11
I1
sg12
S'm'
sg13
I0
sg14
(lp19
sbasS'total'
p20
I0
sg8
S'Ben'
p21
sS'team'
p22
(lp23
(iplayerTypes
tPlayer
p24
(dp25
g8
S'Nick Kyrgios'
p26
sg10
I1
sg11
I1
sg12
S'm'
sg13
I0
sg14
(lp27
sba(iplayerTypes
tPlayer
p28
(dp29
g8
S'John Isner'
p30
sg10
I2
sg11
I1
sg12
S'm'
sg13
I0
sg14
(lp31
sba(iplayerTypes
tPlayer
p32
(dp33
g8
S'Angelique Kerber'
p34
sg10
I3
sg11
I1
sg12
S'f'
sg13
I0
sg14
(lp35
sba(iplayerTypes
tPlayer
p36
(dp37
g8
S'Stan Wawrinka'
p38
sg10
I4
sg11
I1
sg12
S'm'
sg13
I0
sg14
(lp39
sba(iplayerTypes
tPlayer
p40
(dp41
g8
S'Novak Djokovic'
p42
sg10
I5
sg11
I1
sg12
S'm'
sg13
I0
sg14
(lp43
sbasba(iplayerTypes
fPlayer
p44
(dp45
g4
(lp46
(iplayerTypes
tPlayer
p47
(dp48
g8
S'Angelique Kerber'
p49
sg10
I4
sg11
I1
sg12
S'f'
sg13
I0
sg14
(lp50
sba(iplayerTypes
tPlayer
p51
(dp52
g8
S'Dominic Thiem'
p53
sg10
I3
sg11
I1
sg12
S'm'
sg13
I0
sg14
(lp54
sbasg20
I0
sg8
S'Santay'
p55
sg22
(lp56
(iplayerTypes
tPlayer
p57
(dp58
g8
S'Milos Raonic'
p59
sg10
I1
sg11
I1
sg12
S'm'
sg13
I0
sg14
(lp60
sba(iplayerTypes
tPlayer
p61
(dp62
g8
S'Roger Federer'
p63
sg10
I2
sg11
I1
sg12
S'm'
sg13
I0
sg14
(lp64
sba(iplayerTypes
tPlayer
p65
(dp66
g8
S'Rafael Nadal'
p67
sg10
I3
sg11
I1
sg12
S'm'
sg13
I0
sg14
(lp68
sba(iplayerTypes
tPlayer
p69
(dp70
g8
S'Grigor Dimitrov'
p71
sg10
I4
sg11
I1
sg12
S'm'
sg13
I0
sg14
(lp72
sba(iplayerTypes
tPlayer
p73
(dp74
g8
S'Kei Nishikori'
p75
sg10
I5
sg11
I1
sg12
S'm'
sg13
I0
sg14
(lp76
sbasba(iplayerTypes
fPlayer
p77
(dp78
g4
(lp79
(iplayerTypes
tPlayer
p80
(dp81
g8
S'Rafael Nadal'
p82
sg10
I5
sg11
I1
sg12
S'm'
sg13
I0
sg14
(lp83
sba(iplayerTypes
tPlayer
p84
(dp85
g8
S'Jo-Wilfried Tsonga'
p86
sg10
I1
sg11
I1
sg12
S'm'
sg13
I0
sg14
(lp87
sbasg20
I0
sg8
S'Geoff'
p88
sg22
(lp89
(iplayerTypes
tPlayer
p90
(dp91
g8
S'Marin Cilic'
p92
sg10
I1
sg11
I1
sg12
S'm'
sg13
I0
sg14
(lp93
sba(iplayerTypes
tPlayer
p94
(dp95
g8
S'Milos Raonic'
p96
sg10
I2
sg11
I1
sg12
S'm'
sg13
I0
sg14
(lp97
sba(iplayerTypes
tPlayer
p98
(dp99
g8
S'Andy Murray'
p100
sg10
I3
sg11
I1
sg12
S'm'
sg13
I0
sg14
(lp101
sba(iplayerTypes
tPlayer
p102
(dp103
g8
S'Novak Djokovic'
p104
sg10
I4
sg11
I1
sg12
S'm'
sg13
I0
sg14
(lp105
sba(iplayerTypes
tPlayer
p106
(dp107
g8
S'Stan Wawrinka'
p108
sg10
I5
sg11
I1
sg12
S'm'
sg13
I0
sg14
(lp109
sbasba(iplayerTypes
fPlayer
p110
(dp111
g4
(lp112
(iplayerTypes
tPlayer
p113
(dp114
g8
S'Gael Monfils'
p115
sg10
I2
sg11
I1
sg12
S'm'
sg13
I0
sg14
(lp116
sba(iplayerTypes
tPlayer
p117
(dp118
g8
S'Dominic Thiem'
p119
sg10
I2
sg11
I1
sg12
S'm'
sg13
I0
sg14
(lp120
sbasg20
I0
sg8
S'Jack'
p121
sg22
(lp122
(iplayerTypes
tPlayer
p123
(dp124
g8
S'John Isner'
p125
sg10
I1
sg11
I1
sg12
S'm'
sg13
I0
sg14
(lp126
sba(iplayerTypes
tPlayer
p127
(dp128
g8
S'Stan Wawrinka'
p129
sg10
I2
sg11
I1
sg12
S'm'
sg13
I0
sg14
(lp130
sba(iplayerTypes
tPlayer
p131
(dp132
g8
S'Novak Djokovic'
p133
sg10
I3
sg11
I1
sg12
S'm'
sg13
I0
sg14
(lp134
sba(iplayerTypes
tPlayer
p135
(dp136
g8
S'Andy Murray'
p137
sg10
I4
sg11
I1
sg12
S'm'
sg13
I0
sg14
(lp138
sba(iplayerTypes
tPlayer
p139
(dp140
g8
S'Roger Federer'
p141
sg10
I5
sg11
I1
sg12
S'm'
sg13
I0
sg14
(lp142
sbasba(iplayerTypes
fPlayer
p143
(dp144
g4
(lp145
(iplayerTypes
tPlayer
p146
(dp147
g8
S'Tomas Berdych'
p148
sg10
I2
sg11
I1
sg12
S'm'
sg13
I0
sg14
(lp149
sba(iplayerTypes
tPlayer
p150
(dp151
g8
S'Novak Djokovic'
p152
sg10
I2
sg11
I1
sg12
S'm'
sg13
I0
sg14
(lp153
sbasg20
I0
sg8
S'Steve'
p154
sg22
(lp155
(iplayerTypes
tPlayer
p156
(dp157
g8
S'Ivo Karlovic'
p158
sg10
I1
sg11
I1
sg12
S'm'
sg13
I0
sg14
(lp159
sba(iplayerTypes
tPlayer
p160
(dp161
g8
S'Marin Cilic'
p162
sg10
I2
sg11
I1
sg12
S'm'
sg13
I0
sg14
(lp163
sba(iplayerTypes
tPlayer
p164
(dp165
g8
S'Serena Williams'
p166
sg10
I3
sg11
I1
sg12
S'f'
sg13
I0
sg14
(lp167
sba(iplayerTypes
tPlayer
p168
(dp169
g8
S'Milos Raonic'
p170
sg10
I4
sg11
I1
sg12
S'm'
sg13
I0
sg14
(lp171
sba(iplayerTypes
tPlayer
p172
(dp173
g8
S'Andy Murray'
p174
sg10
I5
sg11
I1
sg12
S'm'
sg13
I0
sg14
(lp175
sbasba.