(lp1
(iplayerTypes
fPlayer
p2
(dp3
S'bench'
p4
(lp5
(iplayerTypes
tPlayer
p6
(dp7
S'name'
p8
S'Stanislas Wawrinka'
p9
sS'attribute'
p10
I2
sS'alive'
p11
I1
sS'sex'
p12
S'm'
sS'points'
p13
I0
sS'history'
p14
(lp15
(S'1/2/2017'
p16
S'-'
tp17
asba(iplayerTypes
tPlayer
p18
(dp19
g8
S'Stephane Robert'
p20
sg10
I3
sg11
I0
sg12
S'm'
sg13
I31
sg14
(lp21
(g16
I31
tp22
asbasS'total'
p23
I60
sg8
S'Ben'
p24
sS'team'
p25
(lp26
(iplayerTypes
tPlayer
p27
(dp28
g8
S'Bernard Tomic'
p29
sg10
I1
sg11
I0
sg12
S'm'
sg13
I-9
sg14
(lp30
(g16
I-9
tp31
asba(iplayerTypes
tPlayer
p32
(dp33
g8
S'Nicolas Mahut'
p34
sg10
I2
sg11
I1
sg12
S'm'
sg13
I38
sg14
(lp35
(g16
I38
tp36
asba(iplayerTypes
tPlayer
p37
(dp38
g8
S'Grigor Dimitrov'
p39
sg10
I3
sg11
I1
sg12
S'm'
sg13
I27
sg14
(lp40
(g16
I27
tp41
asba(iplayerTypes
tPlayer
p42
(dp43
g8
S'Milos Raonic'
p44
sg10
I4
sg11
I1
sg12
S'm'
sg13
I0
sg14
(lp45
(g16
S'-'
tp46
asba(iplayerTypes
tPlayer
p47
(dp48
g8
S'Rafael Nadal'
p49
sg10
I5
sg11
I1
sg12
S'm'
sg13
I0
sg14
(lp50
(g16
S'-'
tp51
asbasba.