(lp1
(iplayerTypes
fPlayer
p2
(dp3
S'bench'
p4
(lp5
(iplayerTypes
tPlayer
p6
(dp7
S'name'
p8
S'Grigor Dimitrov'
p9
sS'attribute'
p10
I3
sS'alive'
p11
I1
sS'sex'
p12
S'm'
sS'points'
p13
I27
sS'history'
p14
(lp15
(S'1/2/2017'
p16
I27
tp17
a(S'1/3/2017'
p18
S'-'
tp19
asba(iplayerTypes
tPlayer
p20
(dp21
g8
S'Stanislas Wawrinka'
p22
sg10
I2
sg11
I1
sg12
S'm'
sg13
I0
sg14
(lp23
(g16
S'-'
tp24
a(g18
S'-'
tp25
asbasS'total'
p26
I54
sg8
S'Ben'
p27
sS'team'
p28
(lp29
(iplayerTypes
tPlayer
p30
(dp31
g8
S'Bernard Tomic'
p32
sg10
I1
sg11
I0
sg12
S'm'
sg13
I-9
sg14
(lp33
(g16
I-9
tp34
a(g18
S'-'
tp35
asba(iplayerTypes
tPlayer
p36
(dp37
g8
S'Nicolas Mahut'
p38
sg10
I2
sg11
I1
sg12
S'm'
sg13
I39
sg14
(lp39
(g16
I39
tp40
a(g18
S'-'
tp41
asba(iplayerTypes
tPlayer
p42
(dp43
g8
S'Stephane Robert'
p44
sg10
I3
sg11
I0
sg12
S'm'
sg13
I31
sg14
(lp45
(g16
I31
tp46
a(g18
S'-'
tp47
asba(iplayerTypes
tPlayer
p48
(dp49
g8
S'Milos Raonic'
p50
sg10
I4
sg11
I1
sg12
S'm'
sg13
I0
sg14
(lp51
(g16
S'-'
tp52
a(g18
S'-'
tp53
asba(iplayerTypes
tPlayer
p54
(dp55
g8
S'Rafael Nadal'
p56
sg10
I5
sg11
I1
sg12
S'm'
sg13
I-7
sg14
(lp57
(g16
S'-'
tp58
a(g18
I-7
tp59
asbasba(iplayerTypes
fPlayer
p60
(dp61
g4
(lp62
(iplayerTypes
tPlayer
p63
(dp64
g8
S'Stanislas Wawrinka'
p65
sg10
I4
sg11
I1
sg12
S'm'
sg13
I0
sg14
(lp66
(g16
S'-'
tp67
a(g18
S'-'
tp68
asba(iplayerTypes
tPlayer
p69
(dp70
g8
S'Grigor Dimitrov'
p71
sg10
I2
sg11
I1
sg12
S'm'
sg13
I19
sg14
(lp72
(g16
I19
tp73
a(g18
S'-'
tp74
asbasg26
I159
sg8
S'Santay'
p75
sg28
(lp76
(iplayerTypes
tPlayer
p77
(dp78
g8
S'Milos Raonic'
p79
sg10
I1
sg11
I1
sg12
S'm'
sg13
I0
sg14
(lp80
(g16
S'-'
tp81
a(g18
S'-'
tp82
asba(iplayerTypes
tPlayer
p83
(dp84
g8
S'Sam Querrey'
p85
sg10
I2
sg11
I0
sg12
S'm'
sg13
I59
sg14
(lp86
(g16
S'-'
tp87
a(g18
I59
tp88
asba(iplayerTypes
tPlayer
p89
(dp90
g8
S'David Ferrer'
p91
sg10
I3
sg11
I1
sg12
S'm'
sg13
I45
sg14
(lp92
(g16
I45
tp93
a(g18
S'-'
tp94
asba(iplayerTypes
tPlayer
p95
(dp96
g8
S'Nicolas Mahut'
p97
sg10
I4
sg11
I1
sg12
S'm'
sg13
I55
sg14
(lp98
(g16
I55
tp99
a(g18
S'-'
tp100
asba(iplayerTypes
tPlayer
p101
(dp102
g8
S'Kei Nishikori'
p103
sg10
I5
sg11
I1
sg12
S'm'
sg13
I0
sg14
(lp104
(g16
S'-'
tp105
a(g18
S'-'
tp106
asbasba.