(lp1
(lp2
S'Nick Kyrgios'
p3
aI1
aa(lp4
S'John Isner'
p5
aI1
aa(lp6
S'Angelique Kerber'
p7
aI1
aa(lp8
S'Stan Wawrinka'
p9
aI1
aa(lp10
S'Novak Djokovic'
p11
aI1
aa(lp12
S'Roger Federer'
p13
aI1
aa(lp14
S'Andy Murray'
p15
aI1
aa(lp16
S'Milos Raonic'
p17
aI1
aa(lp18
S'Roger Federer'
p19
aI1
aa(lp20
S'Rafael Nadal'
p21
aI1
aa(lp22
S'Grigor Dimitrov'
p23
aI1
aa(lp24
S'Kei Nishikori'
p25
aI1
aa(lp26
S'Angelique Kerber'
p27
aI1
aa(lp28
S'Dominic Thiem'
p29
aI1
aa(lp30
S'Marin Cilic'
p31
aI1
aa(lp32
S'Milos Raonic'
p33
aI1
aa(lp34
S'Andy Murray'
p35
aI1
aa(lp36
S'Novak Djokovic'
p37
aI1
aa(lp38
S'Stan Wawrinka'
p39
aI1
aa(lp40
S'Rafael Nadal'
p41
aI1
aa(lp42
S'Jo-Wilfried Tsonga'
p43
aI1
aa(lp44
S'John Isner'
p45
aI1
aa(lp46
S'Stan Wawrinka'
p47
aI1
aa(lp48
S'Novak Djokovic'
p49
aI1
aa(lp50
S'Andy Murray'
p51
aI1
aa(lp52
S'Roger Federer'
p53
aI1
aa(lp54
S'Gael Monfils'
p55
aI1
aa(lp56
S'Dominic Thiem'
p57
aI1
aa(lp58
S'Ivo Karlovic'
p59
aI1
aa(lp60
S'Marin Cilic'
p61
aI1
aa(lp62
S'Serena Williams'
p63
aI1
aa(lp64
S'Milos Raonic'
p65
aI1
aa(lp66
S'Andy Murray'
p67
aI1
aa(lp68
S'Tomas Berdych'
p69
aI1
aa(lp70
S'Novak Djokovic'
p71
aI1
aa.