(lp1
(iplayerTypes
fPlayer
p2
(dp3
S'bench'
p4
(lp5
(iplayerTypes
tPlayer
p6
(dp7
S'name'
p8
S'Roger Federer'
p9
sS'attribute'
p10
I4
sS'alive'
p11
I00
sS'sex'
p12
S'm'
sS'points'
p13
I256
sS'history'
p14
(lp15
(S'1/14/19'
p16
I67
tp17
a(S'1/15/19'
p18
S'-'
tp19
a(S'1/16/19'
p20
I65
tp21
a(S'1/17/19'
p22
S'-'
tp23
a(S'1/18/19'
p24
I63
tp25
a(S'1/19/19'
p26
S'-'
tp27
a(S'1/20/19'
p28
I61
tp29
a(S'1/21/19'
p30
S'OUT'
p31
tp32
a(S'1/22/19'
p33
S'OUT'
p34
tp35
a(S'1/23/19'
p36
S'OUT'
p37
tp38
asba(iplayerTypes
tPlayer
p39
(dp40
g8
S'Grigor Dimitrov'
p41
sg10
I2
sg11
I00
sg12
S'm'
sg13
I75
sg14
(lp42
(S'1/14/19'
S'-'
tp43
a(S'1/15/19'
S'-'
tp44
a(S'1/16/19'
S'-'
tp45
a(S'1/17/19'
S'-'
tp46
a(S'1/18/19'
S'-'
tp47
a(S'1/19/19'
S'-'
tp48
a(S'1/20/19'
p49
I75
tp50
a(g30
g31
tp51
a(g33
g34
tp52
a(g36
g37
tp53
asbasS'total'
p54
I1382
sg8
S'Steve'
p55
sS'team'
p56
(lp57
(iplayerTypes
tPlayer
p58
(dp59
g8
S'Milos Raonic'
p60
sg10
I1
sg11
I00
sg12
S'm'
sg13
I348
sg14
(lp61
(g16
S'-'
tp62
a(g18
I87
tp63
a(g20
S'-'
tp64
a(g22
I99
tp65
a(g24
S'-'
tp66
a(g26
I63
tp67
a(S'1/20/19'
p68
S'-'
tp69
a(g30
I42
tp70
a(g33
S'-'
tp71
a(S'1/23/19'
p72
I57
tp73
asba(iplayerTypes
tPlayer
p74
(dp75
g8
S'Ivo Karlovic'
p76
sg10
I2
sg11
I00
sg12
S'm'
sg13
I242
sg14
(lp77
(g16
S'-'
tp78
a(g18
I107
tp79
a(g20
S'-'
tp80
a(g22
I135
tp81
a(g24
S'OUT'
p82
tp83
a(g26
S'OUT'
p84
tp85
a(g68
S'OUT'
p86
tp87
a(g30
g31
tp88
a(g33
g34
tp89
a(g36
g37
tp90
asba(iplayerTypes
tPlayer
p91
(dp92
g8
S'Angelique Kerber'
p93
sg10
I3
sg11
I00
sg12
S'f'
sg13
I169
sg14
(lp94
(g16
I43
tp95
a(g18
S'-'
tp96
a(g20
I39
tp97
a(g22
S'-'
tp98
a(S'1/18/19'
p99
I54
tp100
a(g26
S'-'
tp101
a(S'1/20/19'
I33
tp102
a(g30
g31
tp103
a(g33
g34
tp104
a(g36
g37
tp105
asba(iplayerTypes
tPlayer
p106
(dp107
g8
S'Serena Williams'
p108
sg10
I4
sg11
I00
sg12
S'm'
sg13
I88
sg14
(lp109
(g16
S'-'
tp110
a(g18
S'(88)'
tp111
a(g20
S'-'
tp112
a(g22
S'(42)'
tp113
a(g24
S'-'
tp114
a(g26
S'(50)'
tp115
a(g68
S'-'
tp116
a(g30
I42
tp117
a(g33
S'-'
tp118
a(S'1/23/19'
p119
I46
tp120
asba(iplayerTypes
tPlayer
p121
(dp122
g8
S'Alexander Zverev'
p123
sg10
I5
sg11
I00
sg12
S'm'
sg13
I204
sg14
(lp124
(g16
S'-'
tp125
a(g18
I29
tp126
a(g20
S'-'
tp127
a(g22
I66
tp128
a(g24
S'-'
tp129
a(g26
I52
tp130
a(g68
S'-'
tp131
a(g30
I57
tp132
a(g33
g34
tp133
a(g36
g37
tp134
asbasba(iplayerTypes
fPlayer
p135
(dp136
g4
(lp137
(iplayerTypes
tPlayer
p138
(dp139
g8
S'Simona Halep'
p140
sg10
I3
sg11
I00
sg12
S'm'
sg13
I0
sg14
(lp141
(g16
S'-'
tp142
a(g18
S'(36)'
tp143
a(g20
S'-'
tp144
a(g22
S'(41)'
tp145
a(g24
S'-'
tp146
a(g26
S'(47)'
tp147
a(g68
S'-'
tp148
a(g30
S'(35)'
tp149
a(g33
g34
tp150
a(g36
g37
tp151
asba(iplayerTypes
tPlayer
p152
(dp153
g8
S'John Isner'
p154
sg10
I1
sg11
I00
sg12
S'm'
sg13
I135
sg14
(lp155
(g16
I135
tp156
a(g18
S'OUT'
p157
tp158
a(g20
S'OUT'
p159
tp160
a(g22
S'OUT'
p161
tp162
a(g24
g82
tp163
a(g26
g84
tp164
a(g68
g86
tp165
a(g30
g31
tp166
a(g33
g34
tp167
a(g36
g37
tp168
asba(iplayerTypes
tPlayer
p169
(dp170
g8
S'Milos Raonic'
p171
sg10
I2
sg11
I00
sg12
S'm'
sg13
I462
sg14
(lp172
(g16
S'-'
tp173
a(g18
I98
tp174
a(g20
S'-'
tp175
a(g22
I124
tp176
a(g24
S'-'
tp177
a(g26
I90
tp178
a(g68
S'-'
tp179
a(g30
I66
tp180
a(g33
S'-'
tp181
a(g72
I84
tp182
asbasg54
I1214
sg8
S'Jack'
p183
sg56
(lp184
(iplayerTypes
tPlayer
p185
(dp186
g8
S'Tomas Berdych'
p187
sg10
I1
sg11
I00
sg12
S'm'
sg13
I6
sg14
(lp188
(S'1/14/19'
S'-'
tp189
a(S'1/15/19'
S'-'
tp190
a(S'1/16/19'
S'-'
tp191
a(S'1/17/19'
S'-'
tp192
a(S'1/18/19'
S'-'
tp193
a(S'1/19/19'
S'-'
tp194
a(g49
I6
tp195
a(g30
g31
tp196
a(g33
g34
tp197
a(g36
g37
tp198
asba(iplayerTypes
tPlayer
p199
(dp200
g8
S'Rafael Nadal'
p201
sg10
I2
sg11
I01
sg12
S'm'
sg13
I0
sg14
(lp202
(g16
S'(65)'
tp203
a(g18
S'-'
tp204
a(g20
S'(51)'
tp205
a(g22
S'-'
tp206
a(g99
S'(41)'
tp207
a(g26
S'-'
tp208
a(S'1/20/19'
p209
S'(47)'
tp210
a(g30
S'-'
tp211
a(S'1/22/19'
p212
S'(35)'
tp213
a(g36
S'-'
tp214
asba(iplayerTypes
tPlayer
p215
(dp216
g8
S'Naomi Osaka'
p217
sg10
I3
sg11
I01
sg12
S'm'
sg13
I217
sg14
(lp218
(g16
S'-'
tp219
a(g18
I40
tp220
a(g20
S'-'
tp221
a(g22
I49
tp222
a(g24
S'-'
tp223
a(g26
I41
tp224
a(g68
S'-'
tp225
a(g30
I39
tp226
a(g33
S'-'
tp227
a(S'1/23/19'
I48
tp228
asba(iplayerTypes
tPlayer
p229
(dp230
g8
S'Novak Djokovic'
p231
sg10
I4
sg11
I01
sg12
S'm'
sg13
I330
sg14
(lp232
(g16
S'-'
tp233
a(g18
I59
tp234
a(g20
S'-'
tp235
a(g22
I69
tp236
a(g24
S'-'
tp237
a(g26
I63
tp238
a(g68
S'-'
tp239
a(g30
I50
tp240
a(g33
S'-'
tp241
a(S'1/23/19'
p242
I89
tp243
asba(iplayerTypes
tPlayer
p244
(dp245
g8
S'Roger Federer'
p246
sg10
I5
sg11
I00
sg12
S'm'
sg13
I64
sg14
(lp247
(g16
I15
tp248
a(g18
S'-'
tp249
a(g20
I17
tp250
a(g22
S'-'
tp251
a(g24
I25
tp252
a(g26
S'-'
tp253
a(g28
I7
tp254
a(g30
g31
tp255
a(g33
g34
tp256
a(g36
g37
tp257
asbasba(iplayerTypes
fPlayer
p258
(dp259
g4
(lp260
(iplayerTypes
tPlayer
p261
(dp262
g8
S'Rafael Nadal'
p263
sg10
I3
sg11
I01
sg12
S'f'
sg13
I0
sg14
(lp264
(g16
S'(36)'
tp265
a(g18
S'-'
tp266
a(g20
S'(41)'
tp267
a(g22
S'-'
tp268
a(g99
S'(45)'
tp269
a(g26
S'-'
tp270
a(g209
S'(40)'
tp271
a(g30
S'-'
tp272
a(g212
S'(39)'
tp273
a(g36
S'-'
tp274
asba(iplayerTypes
tPlayer
p275
(dp276
g8
S'Ivo Karlovic'
p277
sg10
I1
sg11
I00
sg12
S'm'
sg13
I270
sg14
(lp278
(g16
S'-'
tp279
a(g18
I102
tp280
a(g20
S'-'
tp281
a(g22
I168
tp282
a(g24
g82
tp283
a(g26
g84
tp284
a(g68
g86
tp285
a(g30
g31
tp286
a(g33
g34
tp287
a(g36
g37
tp288
asba(iplayerTypes
tPlayer
p289
(dp290
g8
S'Kevin Anderson'
p291
sg10
I4
sg11
I00
sg12
S'm'
sg13
I100
sg14
(lp292
(g16
I51
tp293
a(g18
S'-'
tp294
a(g20
I49
tp295
a(g22
g161
tp296
a(g24
g82
tp297
a(g26
g84
tp298
a(g68
g86
tp299
a(g30
g31
tp300
a(g33
g34
tp301
a(g36
g37
tp302
asbasg54
I1156
sg8
S'Ben'
p303
sg56
(lp304
(iplayerTypes
tPlayer
p305
(dp306
g8
S'Marin Cilic'
p307
sg10
I1
sg11
I00
sg12
S'm'
sg13
I42
sg14
(lp308
(g16
S'(66)'
tp309
a(g18
S'-'
tp310
a(g20
S'(57)'
tp311
a(g22
S'-'
tp312
a(g99
I9
tp313
a(g26
S'-'
tp314
a(S'1/20/19'
p315
I33
tp316
a(g30
g31
tp317
a(g33
g34
tp318
a(g36
g37
tp319
asba(iplayerTypes
tPlayer
p320
(dp321
g8
S'Roger Federer'
p322
sg10
I2
sg11
I00
sg12
S'm'
sg13
I290
sg14
(lp323
(g16
I74
tp324
a(g18
S'-'
tp325
a(g20
I95
tp326
a(g22
S'-'
tp327
a(g24
I54
tp328
a(g26
S'-'
tp329
a(g28
I67
tp330
a(g30
g31
tp331
a(g33
g34
tp332
a(g36
g37
tp333
asba(iplayerTypes
tPlayer
p334
(dp335
g8
S'Serena Williams'
p336
sg10
I3
sg11
I00
sg12
S'm'
sg13
I213
sg14
(lp337
(g16
S'-'
tp338
a(g18
I42
tp339
a(g20
S'-'
tp340
a(g22
I54
tp341
a(g24
S'-'
tp342
a(g26
I40
tp343
a(g68
S'-'
tp344
a(g30
I38
tp345
a(g33
S'-'
tp346
a(g119
I39
tp347
asba(iplayerTypes
tPlayer
p348
(dp349
g8
S'Grigor Dimitrov'
p350
sg10
I4
sg11
I00
sg12
S'm'
sg13
I50
sg14
(lp351
(S'1/14/19'
S'-'
tp352
a(S'1/15/19'
S'-'
tp353
a(S'1/16/19'
S'-'
tp354
a(S'1/17/19'
S'-'
tp355
a(S'1/18/19'
S'-'
tp356
a(S'1/19/19'
S'-'
tp357
a(g49
I50
tp358
a(g30
g31
tp359
a(g33
g34
tp360
a(g36
g37
tp361
asba(iplayerTypes
tPlayer
p362
(dp363
g8
S'Novak Djokovic'
p364
sg10
I5
sg11
I01
sg12
S'm'
sg13
I191
sg14
(lp365
(g16
S'-'
tp366
a(g18
I32
tp367
a(g20
S'-'
tp368
a(g22
I34
tp369
a(g24
S'-'
tp370
a(g26
I41
tp371
a(g68
S'-'
tp372
a(g30
I64
tp373
a(g33
S'-'
tp374
a(g242
I20
tp375
asbasba(iplayerTypes
fPlayer
p376
(dp377
g4
(lp378
(iplayerTypes
tPlayer
p379
(dp380
g8
S'Dominic Thiem'
p381
sg10
I2
sg11
I00
sg12
S'm'
sg13
I0
sg14
(lp382
(g16
S'-'
tp383
a(g18
S'(23)'
tp384
a(g20
S'-'
tp385
a(g22
S'(4)'
tp386
a(g24
g82
tp387
a(g26
g84
tp388
a(g68
g86
tp389
a(g30
g31
tp390
a(g33
g34
tp391
a(g36
g37
tp392
asba(iplayerTypes
tPlayer
p393
(dp394
g8
S'Kevin Anderson'
p395
sg10
I1
sg11
I00
sg12
S'm'
sg13
I54
sg14
(lp396
(g16
I27
tp397
a(g18
S'-'
tp398
a(g20
I27
tp399
a(g22
g161
tp400
a(g24
g82
tp401
a(g26
g84
tp402
a(g68
g86
tp403
a(g30
g31
tp404
a(g33
g34
tp405
a(g36
g37
tp406
asba(iplayerTypes
tPlayer
p407
(dp408
g8
S'Alexander Zverev'
p409
sg10
I4
sg11
I00
sg12
S'm'
sg13
I192
sg14
(lp410
(g16
S'-'
tp411
a(g18
I45
tp412
a(g20
S'-'
tp413
a(g22
I49
tp414
a(g24
S'-'
tp415
a(g26
I63
tp416
a(g68
S'-'
tp417
a(g30
I35
tp418
a(g33
g34
tp419
a(g36
g37
tp420
asbasg54
I954
sg8
S'Geoff'
p421
sg56
(lp422
(iplayerTypes
tPlayer
p423
(dp424
g8
S'Lucas Pouille'
p425
sg10
I1
sg11
I01
sg12
S'm'
sg13
I81
sg14
(lp426
(S'1/14/19'
S'-'
tp427
a(S'1/15/19'
S'-'
tp428
a(S'1/16/19'
S'-'
tp429
a(S'1/17/19'
S'-'
tp430
a(S'1/18/19'
S'-'
tp431
a(S'1/19/19'
S'-'
tp432
a(S'1/20/19'
S'-'
tp433
a(g30
I51
tp434
a(g33
S'-'
tp435
a(g72
I30
tp436
asba(iplayerTypes
tPlayer
p437
(dp438
g8
S'Marin Cilic'
p439
sg10
I2
sg11
I00
sg12
S'm'
sg13
I304
sg14
(lp440
(g16
I88
tp441
a(g18
S'-'
tp442
a(g20
I78
tp443
a(g22
S'-'
tp444
a(g99
I81
tp445
a(g26
S'-'
tp446
a(g315
I57
tp447
a(g30
g31
tp448
a(g33
g34
tp449
a(g36
g37
tp450
asba(iplayerTypes
tPlayer
p451
(dp452
g8
S'Roger Federer'
p453
sg10
I3
sg11
I00
sg12
S'm'
sg13
I139
sg14
(lp454
(g16
I37
tp455
a(g18
S'-'
tp456
a(g20
I37
tp457
a(g22
S'-'
tp458
a(g24
I38
tp459
a(g26
S'-'
tp460
a(g28
I27
tp461
a(g30
g31
tp462
a(g33
g34
tp463
a(g36
g37
tp464
asba(iplayerTypes
tPlayer
p465
(dp466
g8
S'Stefanos Tsitsipas'
p467
sg10
I4
sg11
I01
sg12
S'm'
sg13
I0
sg14
(lp468
(g16
S'(63)'
tp469
a(g18
S'-'
tp470
a(g20
S'(69)'
tp471
a(g22
S'-'
tp472
a(g24
S'(54)'
tp473
a(g26
S'-'
tp474
a(g28
S'(64)'
tp475
a(g30
S'-'
tp476
a(S'1/22/19'
S'(49)'
tp477
a(g36
S'-'
tp478
asba(iplayerTypes
tPlayer
p479
(dp480
g8
S'Rafael Nadal'
p481
sg10
I5
sg11
I01
sg12
S'm'
sg13
I184
sg14
(lp482
(g16
I29
tp483
a(g18
S'-'
tp484
a(g20
I45
tp485
a(g22
S'-'
tp486
a(g99
I45
tp487
a(g26
S'-'
tp488
a(g209
I35
tp489
a(g30
S'-'
tp490
a(g212
I30
tp491
a(g36
S'-'
tp492
asbasba(iplayerTypes
fPlayer
p493
(dp494
g4
(lp495
(iplayerTypes
tPlayer
p496
(dp497
g8
S'John Isner'
p498
sg10
I2
sg11
I00
sg12
S'm'
sg13
I133
sg14
(lp499
(g16
I133
tp500
a(g18
g157
tp501
a(g20
g159
tp502
a(g22
g161
tp503
a(g24
g82
tp504
a(g26
g84
tp505
a(g68
g86
tp506
a(g30
g31
tp507
a(g33
g34
tp508
a(g36
g37
tp509
asba(iplayerTypes
tPlayer
p510
(dp511
g8
S'Andy Murray'
p512
sg10
I5
sg11
I00
sg12
S'f'
sg13
I15
sg14
(lp513
(g16
I15
tp514
a(g18
g157
tp515
a(g20
g159
tp516
a(g22
g161
tp517
a(g24
g82
tp518
a(g26
g84
tp519
a(g68
g86
tp520
a(g30
g31
tp521
a(g33
g34
tp522
a(g36
g37
tp523
asba(iplayerTypes
tPlayer
p524
(dp525
g8
S'Karen Khachanov'
p526
sg10
I2
sg11
I00
sg12
S'm'
sg13
I62
sg14
(lp527
(g16
S'(43)'
tp528
a(g18
S'-'
tp529
a(g20
I58
tp530
a(g22
S'-'
tp531
a(S'1/18/19'
I4
tp532
a(g26
g84
tp533
a(g68
g86
tp534
a(g30
g31
tp535
a(g33
g34
tp536
a(g36
g37
tp537
asbasg54
I925
sg8
S'Santay'
p538
sg56
(lp539
(iplayerTypes
tPlayer
p540
(dp541
g8
S'Roger Federer'
p542
sg10
I1
sg11
I00
sg12
S'm'
sg13
I123
sg14
(lp543
(g16
I36
tp544
a(g18
S'-'
tp545
a(g20
I30
tp546
a(g22
S'-'
tp547
a(g24
I21
tp548
a(g26
S'-'
tp549
a(g28
I36
tp550
a(g30
g31
tp551
a(g33
g34
tp552
a(g36
g37
tp553
asba(iplayerTypes
tPlayer
p554
(dp555
g8
S'Alexander Zverev'
p556
sg10
I2
sg11
I00
sg12
S'm'
sg13
I19
sg14
(lp557
(S'1/14/19'
S'-'
tp558
a(S'1/15/19'
S'-'
tp559
a(S'1/16/19'
S'-'
tp560
a(S'1/17/19'
S'-'
tp561
a(S'1/18/19'
S'-'
tp562
a(S'1/19/19'
S'-'
tp563
a(S'1/20/19'
S'-'
tp564
a(g30
I19
tp565
a(g33
g34
tp566
a(g36
g37
tp567
asba(iplayerTypes
tPlayer
p568
(dp569
g8
S'Novak Djokovic'
p570
sg10
I3
sg11
I01
sg12
S'm'
sg13
I216
sg14
(lp571
(g16
S'-'
tp572
a(g18
I48
tp573
a(g20
S'-'
tp574
a(g22
I39
tp575
a(g24
S'-'
tp576
a(g26
I42
tp577
a(g68
S'-'
tp578
a(g30
I38
tp579
a(g33
S'-'
tp580
a(g242
I49
tp581
asba(iplayerTypes
tPlayer
p582
(dp583
g8
S'Rafael Nadal'
p584
sg10
I4
sg11
I01
sg12
S'm'
sg13
I276
sg14
(lp585
(g16
I59
tp586
a(g18
S'-'
tp587
a(g20
I57
tp588
a(g22
S'-'
tp589
a(g99
I36
tp590
a(g26
S'-'
tp591
a(g209
I64
tp592
a(g30
S'-'
tp593
a(g212
I60
tp594
a(g36
S'-'
tp595
asba(iplayerTypes
tPlayer
p596
(dp597
g8
S'Kei Nishikori'
p598
sg10
I5
sg11
I00
sg12
S'm'
sg13
I81
sg14
(lp599
(g16
S'-'
tp600
a(g18
S'(64)'
tp601
a(g20
S'-'
tp602
a(g22
I14
tp603
a(g24
S'-'
tp604
a(g26
I27
tp605
a(g68
S'-'
tp606
a(g30
I52
tp607
a(g33
S'-'
tp608
a(g242
I-12
tp609
asbasba.