(lp1
(iplayerTypes
fPlayer
p2
(dp3
S'bench'
p4
(lp5
(iplayerTypes
tPlayer
p6
(dp7
S'name'
p8
S'Grigor Dimitrov'
p9
sS'attribute'
p10
I3
sS'alive'
p11
I1
sS'sex'
p12
S'm'
sS'points'
p13
I51
sS'history'
p14
(lp15
(S'1/2/2017'
p16
I51
tp17
a(S'1/3/2017'
p18
S'-'
tp19
a(S'1/4/2017'
p20
S'-'
tp21
asba(iplayerTypes
tPlayer
p22
(dp23
g8
S'Stanislas Wawrinka'
p24
sg10
I2
sg11
I1
sg12
S'm'
sg13
I0
sg14
(lp25
(g16
S'-'
tp26
a(g18
S'-'
tp27
a(g20
S'-'
tp28
asbasS'total'
p29
I68
sg8
S'Ben'
p30
sS'team'
p31
(lp32
(iplayerTypes
tPlayer
p33
(dp34
g8
S'Bernard Tomic'
p35
sg10
I1
sg11
I0
sg12
S'm'
sg13
I-9
sg14
(lp36
(g16
I-9
tp37
a(g18
S'-'
tp38
a(g20
S'-'
tp39
asba(iplayerTypes
tPlayer
p40
(dp41
g8
S'Nicolas Mahut'
p42
sg10
I2
sg11
I1
sg12
S'm'
sg13
I19
sg14
(lp43
(g16
I19
tp44
a(g18
S'-'
tp45
a(g20
S'-'
tp46
asba(iplayerTypes
tPlayer
p47
(dp48
g8
S'Stephane Robert'
p49
sg10
I3
sg11
I0
sg12
S'm'
sg13
I31
sg14
(lp50
(g16
I31
tp51
a(g18
S'-'
tp52
a(g20
S'-'
tp53
asba(iplayerTypes
tPlayer
p54
(dp55
g8
S'Milos Raonic'
p56
sg10
I4
sg11
I1
sg12
S'm'
sg13
I0
sg14
(lp57
(g16
S'-'
tp58
a(g18
S'-'
tp59
a(g20
S'-'
tp60
asba(iplayerTypes
tPlayer
p61
(dp62
g8
S'Rafael Nadal'
p63
sg10
I5
sg11
I1
sg12
S'm'
sg13
I27
sg14
(lp64
(g16
S'-'
tp65
a(g18
I27
tp66
a(g20
S'-'
tp67
asbasba(iplayerTypes
fPlayer
p68
(dp69
g4
(lp70
(iplayerTypes
tPlayer
p71
(dp72
g8
S'Stanislas Wawrinka'
p73
sg10
I4
sg11
I1
sg12
S'm'
sg13
I0
sg14
(lp74
(g16
S'-'
tp75
a(g18
S'-'
tp76
a(g20
S'-'
tp77
asba(iplayerTypes
tPlayer
p78
(dp79
g8
S'Grigor Dimitrov'
p80
sg10
I2
sg11
I1
sg12
S'm'
sg13
I37
sg14
(lp81
(g16
I37
tp82
a(g18
S'-'
tp83
a(g20
S'-'
tp84
asbasg29
I207
sg8
S'Santay'
p85
sg31
(lp86
(iplayerTypes
tPlayer
p87
(dp88
g8
S'Milos Raonic'
p89
sg10
I1
sg11
I1
sg12
S'm'
sg13
I0
sg14
(lp90
(g16
S'-'
tp91
a(g18
S'-'
tp92
a(g20
S'-'
tp93
asba(iplayerTypes
tPlayer
p94
(dp95
g8
S'Sam Querrey'
p96
sg10
I2
sg11
I0
sg12
S'm'
sg13
I39
sg14
(lp97
(g16
S'-'
tp98
a(g18
I39
tp99
a(g20
S'-'
tp100
asba(iplayerTypes
tPlayer
p101
(dp102
g8
S'David Ferrer'
p103
sg10
I3
sg11
I0
sg12
S'm'
sg13
I80
sg14
(lp104
(g16
I45
tp105
a(g18
S'-'
tp106
a(g20
I35
tp107
asba(iplayerTypes
tPlayer
p108
(dp109
g8
S'Nicolas Mahut'
p110
sg10
I4
sg11
I1
sg12
S'm'
sg13
I55
sg14
(lp111
(g16
I55
tp112
a(g18
S'-'
tp113
a(g20
S'-'
tp114
asba(iplayerTypes
tPlayer
p115
(dp116
g8
S'Kei Nishikori'
p117
sg10
I5
sg11
I1
sg12
S'm'
sg13
I33
sg14
(lp118
(g16
S'-'
tp119
a(g18
S'-'
tp120
a(g20
I33
tp121
asbasba.