(lp1
(lp2
S'Milos Raonic'
p3
aI1
aa(lp4
S'Stan Wawrinka'
p5
aI1
aa(lp6
S'David Goffin'
p7
aI1
aa(lp8
S'Novak Djokovic'
p9
aI1
aa(lp10
S'Rafa Nadal'
p11
aI1
aa(lp12
S'Dominic Thiem'
p13
aI1
aa(lp14
S'Andy Murray'
p15
aI1
aa(lp16
S'Rafa Nadal'
p17
aI1
aa(lp18
S'Andy Murray'
p19
aI1
aa(lp20
S'Grigor Dimitrov'
p21
aI1
aa(lp22
S'Jo-Wilfried Tsonga'
p23
aI1
aa(lp24
S'Sam Querrey'
p25
aI1
aa(lp26
S'David Goffin'
p27
aI1
aa(lp28
S'Elina Svitolina'
p29
aI1
aa.