(lp1
(iplayerTypes
fPlayer
p2
(dp3
S'bench'
p4
(lp5
(iplayerTypes
tPlayer
p6
(dp7
S'name'
p8
S'Grigor Dimitrov'
p9
sS'attribute'
p10
I3
sS'alive'
p11
I1
sS'sex'
p12
S'm'
sS'points'
p13
I0
sS'history'
p14
(lp15
(S'1/1/2017'
p16
S'DNP'
p17
tp18
a(S'1/2/2017'
p19
S'(51)'
tp20
a(S'1/3/2017'
p21
S'DNP'
p22
tp23
a(S'1/4/2017'
p24
S'DNP'
p25
tp26
a(S'1/5/2017'
p27
S'(40)'
tp28
a(S'1/6/2017'
p29
S'(35)'
tp30
a(S'1/7/2017'
p31
S'(34)'
tp32
a(S'1/8/2017'
p33
S'(35)'
tp34
asba(iplayerTypes
tPlayer
p35
(dp36
g8
S'Stan Wawrinka'
p37
sg10
I2
sg11
I0
sg12
S'm'
sg13
I0
sg14
(lp38
(g16
g17
tp39
a(g19
S'DNP'
p40
tp41
a(g21
g22
tp42
a(g24
S'(27)'
tp43
a(g27
S'DNP'
p44
tp45
a(g29
S'(59)'
tp46
a(g31
S'(39)'
tp47
a(g33
S'OUT'
p48
tp49
asbasS'total'
p50
I319
sg8
S'Ben'
p51
sS'team'
p52
(lp53
(iplayerTypes
tPlayer
p54
(dp55
g8
S'Bernard Tomic'
p56
sg10
I1
sg11
I0
sg12
S'm'
sg13
I-9
sg14
(lp57
(g16
g17
tp58
a(g19
I-9
tp59
a(g21
S'OUT'
p60
tp61
a(g24
S'OUT'
p62
tp63
a(g27
S'OUT'
p64
tp65
a(g29
S'OUT'
p66
tp67
a(g31
S'OUT'
p68
tp69
a(g33
g48
tp70
asba(iplayerTypes
tPlayer
p71
(dp72
g8
S'Nicolas Mahut'
p73
sg10
I2
sg11
I0
sg12
S'm'
sg13
I78
sg14
(lp74
(g16
g17
tp75
a(g19
I39
tp76
a(g21
g22
tp77
a(g24
g25
tp78
a(g27
I39
tp79
a(g29
g66
tp80
a(g31
g68
tp81
a(g33
g48
tp82
asba(iplayerTypes
tPlayer
p83
(dp84
g8
S'Stephane Robert'
p85
sg10
I3
sg11
I0
sg12
S'm'
sg13
I31
sg14
(lp86
(g16
g17
tp87
a(g19
I31
tp88
a(g21
g60
tp89
a(g24
g62
tp90
a(g27
g64
tp91
a(g29
g66
tp92
a(g31
g68
tp93
a(g33
g48
tp94
asba(iplayerTypes
tPlayer
p95
(dp96
g8
S'Milos Raonic'
p97
sg10
I4
sg11
I0
sg12
S'm'
sg13
I148
sg14
(lp98
(g16
g17
tp99
a(g19
g40
tp100
a(g21
g22
tp101
a(g24
g25
tp102
a(g27
I54
tp103
a(g29
I46
tp104
a(g31
I48
tp105
a(g33
g48
tp106
asba(iplayerTypes
tPlayer
p107
(dp108
g8
S'Rafael Nadal'
p109
sg10
I5
sg11
I0
sg12
S'm'
sg13
I71
sg14
(lp110
(g16
g17
tp111
a(g19
g40
tp112
a(g21
I27
tp113
a(g24
g25
tp114
a(g27
I35
tp115
a(g29
I9
tp116
a(g31
g68
tp117
a(g33
g48
tp118
asbasba(iplayerTypes
fPlayer
p119
(dp120
g4
(lp121
(iplayerTypes
tPlayer
p122
(dp123
g8
S'Stan Wawrinka'
p124
sg10
I4
sg11
I0
sg12
S'm'
sg13
I0
sg14
(lp125
(g16
g17
tp126
a(g19
g40
tp127
a(g21
g22
tp128
a(g24
S'(65)'
tp129
a(g27
g44
tp130
a(g29
S'(54)'
tp131
a(g31
S'(42)'
tp132
a(g33
g48
tp133
asba(iplayerTypes
tPlayer
p134
(dp135
g8
S'Grigor Dimitrov'
p136
sg10
I2
sg11
I1
sg12
S'm'
sg13
I0
sg14
(lp137
(g16
g17
tp138
a(g19
S'(26)'
tp139
a(g21
g22
tp140
a(g24
g25
tp141
a(g27
S'(19)'
tp142
a(g29
S'(28)'
tp143
a(g31
S'(29)'
tp144
a(g33
S'(25)'
tp145
asbasg50
I373
sg8
S'Santay'
p146
sg52
(lp147
(iplayerTypes
tPlayer
p148
(dp149
g8
S'Milos Raonic'
p150
sg10
I1
sg11
I0
sg12
S'm'
sg13
I96
sg14
(lp151
(g16
g17
tp152
a(g19
g40
tp153
a(g21
g22
tp154
a(g24
g25
tp155
a(g27
I33
tp156
a(g29
I60
tp157
a(g31
I3
tp158
a(g33
g48
tp159
asba(iplayerTypes
tPlayer
p160
(dp161
g8
S'Sam Querrey'
p162
sg10
I2
sg11
I0
sg12
S'm'
sg13
I19
sg14
(lp163
(g16
g17
tp164
a(g19
g40
tp165
a(g21
I19
tp166
a(g24
g62
tp167
a(g27
g64
tp168
a(g29
g66
tp169
a(g31
g68
tp170
a(g33
g48
tp171
asba(iplayerTypes
tPlayer
p172
(dp173
g8
S'David Ferrer'
p174
sg10
I3
sg11
I0
sg12
S'm'
sg13
I80
sg14
(lp175
(g16
g17
tp176
a(g19
I45
tp177
a(g21
g22
tp178
a(g24
I35
tp179
a(g27
g64
tp180
a(g29
g66
tp181
a(g31
g68
tp182
a(g33
g48
tp183
asba(iplayerTypes
tPlayer
p184
(dp185
g8
S'Nicolas Mahut'
p186
sg10
I4
sg11
I0
sg12
S'm'
sg13
I82
sg14
(lp187
(g16
g17
tp188
a(g19
I55
tp189
a(g21
g22
tp190
a(g24
g25
tp191
a(g27
I27
tp192
a(g29
g66
tp193
a(g31
g68
tp194
a(g33
g48
tp195
asba(iplayerTypes
tPlayer
p196
(dp197
g8
S'Kei Nishikori'
p198
sg10
I5
sg11
I0
sg12
S'm'
sg13
I96
sg14
(lp199
(g16
g17
tp200
a(g19
g40
tp201
a(g21
g22
tp202
a(g24
I33
tp203
a(g27
g44
tp204
a(g29
I25
tp205
a(g31
I27
tp206
a(g33
I11
tp207
asbasba.