(lp1
(iplayerTypes
fPlayer
p2
(dp3
S'bench'
p4
(lp5
(iplayerTypes
tPlayer
p6
(dp7
S'name'
p8
S'Nick Kyrgios'
p9
sS'attribute'
p10
I1
sS'alive'
p11
I0
sS'sex'
p12
S'm'
sS'points'
p13
I15
sS'history'
p14
(lp15
(S'1/16/2017'
p16
I15
tp17
a(S'1/17/2017'
p18
S'DNP'
p19
tp20
a(S'1/18/2017'
p21
S'(60)'
tp22
a(S'1/19/2017'
p23
S'OUT'
p24
tp25
a(S'1/20/2017'
p26
S'OUT'
p27
tp28
a(S'1/21/2017'
p29
S'OUT'
p30
tp31
a(S'1/22/2017'
p32
S'OUT'
p33
tp34
asba(iplayerTypes
tPlayer
p35
(dp36
g8
S'John Isner'
p37
sg10
I2
sg11
I0
sg12
S'm'
sg13
I229
sg14
(lp38
(g16
I98
tp39
a(g18
g19
tp40
a(g21
I131
tp41
a(g23
g24
tp42
a(g26
g27
tp43
a(g29
g30
tp44
a(g32
g33
tp45
asba(iplayerTypes
tPlayer
p46
(dp47
g8
S'Novak Djokovic'
p48
sg10
I5
sg11
I0
sg12
S'm'
sg13
I107
sg14
(lp49
(g16
S'DNP'
p50
tp51
a(g18
I39
tp52
a(g21
S'DNP'
p53
tp54
a(g23
I68
tp55
a(g26
g27
tp56
a(g29
g30
tp57
a(g32
g33
tp58
asbasS'total'
p59
I1039
sg8
S'Ben'
p60
sS'team'
p61
(lp62
(iplayerTypes
tPlayer
p63
(dp64
g8
S'Roger Federer'
p65
sg10
I1
sg11
I1
sg12
S'm'
sg13
I117
sg14
(lp66
(g16
S'(54)'
tp67
a(g18
g19
tp68
a(g21
I45
tp69
a(g23
S'DNP'
p70
tp71
a(g26
I18
tp72
a(g29
S'DNP'
p73
tp74
a(g32
I54
tp75
asba(iplayerTypes
tPlayer
p76
(dp77
g8
S'Andy Murray'
p78
sg10
I2
sg11
I0
sg12
S'm'
sg13
I172
sg14
(lp79
(g16
S'(23)'
tp80
a(g18
g19
tp81
a(g21
S'(36)'
tp82
a(g23
g70
tp83
a(g26
I58
tp84
a(g29
g73
tp85
a(g32
I114
tp86
asba(iplayerTypes
tPlayer
p87
(dp88
g8
S'Angelique Kerber'
p89
sg10
I3
sg11
I0
sg12
S'f'
sg13
I177
sg14
(lp90
(g16
I43
tp91
a(g18
g19
tp92
a(g21
I47
tp93
a(g23
g70
tp94
a(g26
I53
tp95
a(g29
g73
tp96
a(g32
I34
tp97
asba(iplayerTypes
tPlayer
p98
(dp99
g8
S'Stan Wawrinka'
p100
sg10
I4
sg11
I1
sg12
S'm'
sg13
I222
sg14
(lp101
(g16
I47
tp102
a(g18
g19
tp103
a(g21
I56
tp104
a(g23
g70
tp105
a(g26
I52
tp106
a(g29
g73
tp107
a(g32
I67
tp108
asba(iplayerTypes
tPlayer
p109
(dp110
g8
S'Grigor Dimitrov'
p111
sg10
I5
sg11
I1
sg12
S'm'
sg13
I0
sg14
(lp112
(S'0/0/0'
S'(-)'
tp113
ag113
ag113
ag113
ag113
ag113
a(g32
S'DNP'
p114
tp115
asbasba(iplayerTypes
fPlayer
p116
(dp117
g4
(lp118
(iplayerTypes
tPlayer
p119
(dp120
g8
S'Novak Djokovic'
p121
sg10
I2
sg11
I0
sg12
S'm'
sg13
I0
sg14
(lp122
(g16
g50
tp123
a(g18
S'(14)'
tp124
a(g21
g53
tp125
a(g23
S'(64)'
tp126
a(g26
g27
tp127
a(g29
g30
tp128
a(g32
g33
tp129
asba(iplayerTypes
tPlayer
p130
(dp131
g8
S'Tomas Berdych'
p132
sg10
I2
sg11
I0
sg12
S'm'
sg13
I38
sg14
(lp133
(g16
S'(10)'
tp134
a(g18
g19
tp135
a(g21
S'(43)'
tp136
a(g23
g70
tp137
a(g26
I38
tp138
a(g29
g30
tp139
a(g32
g33
tp140
asba(iplayerTypes
tPlayer
p141
(dp142
g8
S'Marin Cilic'
p143
sg10
I2
sg11
I0
sg12
S'm'
sg13
I146
sg14
(lp144
(g16
I105
tp145
a(g18
g19
tp146
a(g21
I41
tp147
a(g23
g24
tp148
a(g26
g27
tp149
a(g29
g30
tp150
a(g32
g33
tp151
asbasg59
I1023
sg8
S'Steve'
p152
sg61
(lp153
(iplayerTypes
tPlayer
p154
(dp155
g8
S'Ivo Karlovic'
p156
sg10
I1
sg11
I0
sg12
S'm'
sg13
I291
sg14
(lp157
(g16
g50
tp158
a(g18
I189
tp159
a(g21
g53
tp160
a(g23
I36
tp161
a(g26
S'DNP'
p162
tp163
a(g29
I66
tp164
a(g32
g33
tp165
asba(iplayerTypes
tPlayer
p166
(dp167
g8
S'Jo-Wilfried Tsonga'
p168
sg10
I2
sg11
I1
sg12
S'm'
sg13
I89
sg14
(lp169
(S'0/0/0'
S'(-)'
tp170
ag170
ag170
ag170
ag170
ag170
a(g32
I89
tp171
asba(iplayerTypes
tPlayer
p172
(dp173
g8
S'Serena Williams'
p174
sg10
I3
sg11
I1
sg12
S'f'
sg13
I138
sg14
(lp175
(g16
g50
tp176
a(g18
I46
tp177
a(g21
g53
tp178
a(g23
I38
tp179
a(g26
g162
tp180
a(g29
I54
tp181
a(g32
g114
tp182
asba(iplayerTypes
tPlayer
p183
(dp184
g8
S'Milos Raonic'
p185
sg10
I4
sg11
I1
sg12
S'm'
sg13
I182
sg14
(lp186
(g16
g50
tp187
a(g18
I62
tp188
a(g21
g53
tp189
a(g23
I59
tp190
a(g26
g162
tp191
a(g29
I61
tp192
a(g32
g114
tp193
asba(iplayerTypes
tPlayer
p194
(dp195
g8
S'Andy Murray'
p196
sg10
I5
sg11
I0
sg12
S'm'
sg13
I139
sg14
(lp197
(g16
I31
tp198
a(g18
g19
tp199
a(g21
I30
tp200
a(g23
g70
tp201
a(g26
I32
tp202
a(g29
g73
tp203
a(g32
I46
tp204
asbasba(iplayerTypes
fPlayer
p205
(dp206
g4
(lp207
(iplayerTypes
tPlayer
p208
(dp209
g8
S'Grigor Dimitrov'
p210
sg10
I4
sg11
I1
sg12
S'm'
sg13
I62
sg14
(lp211
(g16
g50
tp212
a(g18
I62
tp213
a(g21
g53
tp214
a(g23
S'(54)'
tp215
a(g26
g162
tp216
a(g29
S'(35)'
tp217
a(g32
g114
tp218
asba(iplayerTypes
tPlayer
p219
(dp220
g8
S'Rafael Nadal'
p221
sg10
I3
sg11
I1
sg12
S'm'
sg13
I88
sg14
(lp222
(g16
g50
tp223
a(g18
I38
tp224
a(g21
g53
tp225
a(g23
I50
tp226
a(g26
g162
tp227
a(g29
S'(40)'
tp228
a(g32
g114
tp229
asbasg59
I978
sg8
S'Santay'
p230
sg61
(lp231
(iplayerTypes
tPlayer
p232
(dp233
g8
S'Milos Raonic'
p234
sg10
I1
sg11
I1
sg12
S'm'
sg13
I147
sg14
(lp235
(g16
g50
tp236
a(g18
I39
tp237
a(g21
g53
tp238
a(g23
I54
tp239
a(g26
g162
tp240
a(g29
I54
tp241
a(g32
g114
tp242
asba(iplayerTypes
tPlayer
p243
(dp244
g8
S'Roger Federer'
p245
sg10
I2
sg11
I1
sg12
S'm'
sg13
I293
sg14
(lp246
(g16
I56
tp247
a(g18
g19
tp248
a(g21
I55
tp249
a(g23
g70
tp250
a(g26
I63
tp251
a(g29
g73
tp252
a(g32
I119
tp253
asba(iplayerTypes
tPlayer
p254
(dp255
g8
S'Dominic Thiem'
p256
sg10
I3
sg11
I1
sg12
S'm'
sg13
I45
sg14
(lp257
(g16
g50
tp258
a(g18
S'(39)'
tp259
a(g21
g53
tp260
a(g23
S'(43)'
tp261
a(g26
g162
tp262
a(g29
I45
tp263
a(g32
g114
tp264
asba(iplayerTypes
tPlayer
p265
(dp266
g8
S'Angelique Kerber'
p267
sg10
I4
sg11
I0
sg12
S'f'
sg13
I151
sg14
(lp268
(g16
S'(64)'
tp269
a(g18
g19
tp270
a(g21
I51
tp271
a(g23
g70
tp272
a(g26
I61
tp273
a(g29
g73
tp274
a(g32
I39
tp275
asba(iplayerTypes
tPlayer
p276
(dp277
g8
S'Kei Nishikori'
p278
sg10
I5
sg11
I0
sg12
S'm'
sg13
I192
sg14
(lp279
(g16
I65
tp280
a(g18
g19
tp281
a(g21
I56
tp282
a(g23
g70
tp283
a(g26
I22
tp284
a(g29
g73
tp285
a(g32
I49
tp286
asbasba(iplayerTypes
fPlayer
p287
(dp288
g4
(lp289
(iplayerTypes
tPlayer
p290
(dp291
g8
S'Gael Monfils'
p292
sg10
I2
sg11
I1
sg12
S'm'
sg13
I0
sg14
(lp293
(g16
g50
tp294
a(g18
S'(47)'
tp295
a(g21
g53
tp296
a(g23
S'(42)'
tp297
a(g26
g162
tp298
a(g29
S'(25)'
tp299
a(g32
g114
tp300
asba(iplayerTypes
tPlayer
p301
(dp302
g8
S'John Isner'
p303
sg10
I1
sg11
I0
sg12
S'm'
sg13
I168
sg14
(lp304
(g16
I81
tp305
a(g18
g19
tp306
a(g21
I87
tp307
a(g23
g24
tp308
a(g26
g27
tp309
a(g29
g30
tp310
a(g32
g33
tp311
asba(iplayerTypes
tPlayer
p312
(dp313
g8
S'Novak Djokovic'
p314
sg10
I3
sg11
I0
sg12
S'm'
sg13
I88
sg14
(lp315
(g16
g50
tp316
a(g18
I50
tp317
a(g21
g53
tp318
a(g23
I38
tp319
a(g26
g27
tp320
a(g29
g30
tp321
a(g32
g33
tp322
asbasg59
I906
sg8
S'Jack'
p323
sg61
(lp324
(iplayerTypes
tPlayer
p325
(dp326
g8
S'Dominic Thiem'
p327
sg10
I1
sg11
I1
sg12
S'm'
sg13
I21
sg14
(lp328
(g16
g50
tp329
a(g18
S'(47)'
tp330
a(g21
g53
tp331
a(g23
S'(24)'
tp332
a(g26
g162
tp333
a(g29
I21
tp334
a(g32
g114
tp335
asba(iplayerTypes
tPlayer
p336
(dp337
g8
S'Stan Wawrinka'
p338
sg10
I2
sg11
I1
sg12
S'm'
sg13
I253
sg14
(lp339
(g16
I77
tp340
a(g18
g19
tp341
a(g21
I67
tp342
a(g23
g70
tp343
a(g26
I44
tp344
a(g29
g73
tp345
a(g32
I65
tp346
asba(iplayerTypes
tPlayer
p347
(dp348
g8
S'Kei Nishikori'
p349
sg10
I3
sg11
I0
sg12
S'm'
sg13
I30
sg14
(lp350
(S'0/0/0'
S'(-)'
tp351
ag351
ag351
ag351
ag351
ag351
a(g32
I30
tp352
asba(iplayerTypes
tPlayer
p353
(dp354
g8
S'Andy Murray'
p355
sg10
I4
sg11
I0
sg12
S'm'
sg13
I197
sg14
(lp356
(g16
I43
tp357
a(g18
g19
tp358
a(g21
I68
tp359
a(g23
g70
tp360
a(g26
I50
tp361
a(g29
g73
tp362
a(g32
I36
tp363
asba(iplayerTypes
tPlayer
p364
(dp365
g8
S'Roger Federer'
p366
sg10
I5
sg11
I1
sg12
S'm'
sg13
I149
sg14
(lp367
(g16
I31
tp368
a(g18
g19
tp369
a(g21
I37
tp370
a(g23
g70
tp371
a(g26
I20
tp372
a(g29
g73
tp373
a(g32
I61
tp374
asbasba(iplayerTypes
fPlayer
p375
(dp376
g4
(lp377
(iplayerTypes
tPlayer
p378
(dp379
g8
S'Rafael Nadal'
p380
sg10
I5
sg11
I1
sg12
S'm'
sg13
I0
sg14
(lp381
(g16
g50
tp382
a(g18
S'(15)'
tp383
a(g21
g53
tp384
a(g23
S'(47)'
tp385
a(g26
g162
tp386
a(g29
S'(44)'
tp387
a(g32
g114
tp388
asba(iplayerTypes
tPlayer
p389
(dp390
g8
S'Marin Cilic'
p391
sg10
I1
sg11
I0
sg12
S'm'
sg13
I84
sg14
(lp392
(g16
I54
tp393
a(g18
g19
tp394
a(g21
I30
tp395
a(g23
g24
tp396
a(g26
g27
tp397
a(g29
g30
tp398
a(g32
g33
tp399
asba(iplayerTypes
tPlayer
p400
(dp401
g8
S'Novak Djokovic'
p402
sg10
I4
sg11
I0
sg12
S'm'
sg13
I105
sg14
(lp403
(g16
g50
tp404
a(g18
I50
tp405
a(g21
g53
tp406
a(g23
I55
tp407
a(g26
g27
tp408
a(g29
g30
tp409
a(g32
g33
tp410
asbasg59
I872
sg8
S'Geoff'
p411
sg61
(lp412
(iplayerTypes
tPlayer
p413
(dp414
g8
S'Jo-Wilfried Tsonga'
p415
sg10
I1
sg11
I1
sg12
S'm'
sg13
I99
sg14
(lp416
(g16
S'(45)'
tp417
a(g18
g19
tp418
a(g21
S'(39)'
tp419
a(g23
g70
tp420
a(g26
I54
tp421
a(g29
g73
tp422
a(g32
I45
tp423
asba(iplayerTypes
tPlayer
p424
(dp425
g8
S'Milos Raonic'
p426
sg10
I2
sg11
I1
sg12
S'm'
sg13
I240
sg14
(lp427
(g16
g50
tp428
a(g18
I67
tp429
a(g21
g53
tp430
a(g23
I97
tp431
a(g26
g162
tp432
a(g29
I76
tp433
a(g32
g114
tp434
asba(iplayerTypes
tPlayer
p435
(dp436
g8
S'Andy Murray'
p437
sg10
I3
sg11
I0
sg12
S'm'
sg13
I180
sg14
(lp438
(g16
I45
tp439
a(g18
g19
tp440
a(g21
I49
tp441
a(g23
g70
tp442
a(g26
I45
tp443
a(g29
g73
tp444
a(g32
I41
tp445
asba(iplayerTypes
tPlayer
p446
(dp447
g8
S'Dominic Thiem'
p448
sg10
I4
sg11
I1
sg12
S'm'
sg13
I0
sg14
(lp449
(S'0/0/0'
S'(-)'
tp450
ag450
ag450
ag450
ag450
ag450
a(g32
g114
tp451
asba(iplayerTypes
tPlayer
p452
(dp453
g8
S'Stan Wawrinka'
p454
sg10
I5
sg11
I1
sg12
S'm'
sg13
I164
sg14
(lp455
(g16
I70
tp456
a(g18
g19
tp457
a(g21
I40
tp458
a(g23
g70
tp459
a(g26
I40
tp460
a(g29
g73
tp461
a(g32
I14
tp462
asbasba.