(lp1
(iplayerTypes
fPlayer
p2
(dp3
S'bench'
p4
(lp5
(iplayerTypes
tPlayer
p6
(dp7
S'name'
p8
S'Novak Djokovic'
p9
sS'attribute'
p10
I2
sS'alive'
p11
I0
sS'sex'
p12
S'm'
sS'points'
p13
I0
sS'history'
p14
(lp15
(S'1/16/2017'
p16
S'DNP'
p17
tp18
a(S'1/17/2017'
p19
S'(14)'
tp20
a(S'1/18/2017'
p21
S'DNP'
p22
tp23
a(S'1/19/2017'
p24
S'(64)'
tp25
a(S'1/20/2017'
p26
S'OUT'
p27
tp28
a(S'1/21/2017'
p29
S'OUT'
p30
tp31
asba(iplayerTypes
tPlayer
p32
(dp33
g8
S'Tomas Berdych'
p34
sg10
I2
sg11
I0
sg12
S'm'
sg13
I38
sg14
(lp35
(g16
S'(10)'
tp36
a(g19
S'DNP'
p37
tp38
a(g21
S'(43)'
tp39
a(g24
S'DNP'
p40
tp41
a(g26
I38
tp42
a(g29
g30
tp43
asbasS'total'
p44
I888
sg8
S'Steve'
p45
sS'team'
p46
(lp47
(iplayerTypes
tPlayer
p48
(dp49
g8
S'Ivo Karlovic'
p50
sg10
I1
sg11
I0
sg12
S'm'
sg13
I291
sg14
(lp51
(g16
g17
tp52
a(g19
I189
tp53
a(g21
g22
tp54
a(g24
I36
tp55
a(g26
S'DNP'
p56
tp57
a(g29
I66
tp58
asba(iplayerTypes
tPlayer
p59
(dp60
g8
S'Marin Cilic'
p61
sg10
I2
sg11
I0
sg12
S'm'
sg13
I146
sg14
(lp62
(g16
I105
tp63
a(g19
g37
tp64
a(g21
I41
tp65
a(g24
S'OUT'
p66
tp67
a(g26
g27
tp68
a(g29
g30
tp69
asba(iplayerTypes
tPlayer
p70
(dp71
g8
S'Serena Williams'
p72
sg10
I3
sg11
I1
sg12
S'f'
sg13
I138
sg14
(lp73
(g16
g17
tp74
a(g19
I46
tp75
a(g21
g22
tp76
a(g24
I38
tp77
a(g26
g56
tp78
a(g29
I54
tp79
asba(iplayerTypes
tPlayer
p80
(dp81
g8
S'Milos Raonic'
p82
sg10
I4
sg11
I1
sg12
S'm'
sg13
I182
sg14
(lp83
(g16
g17
tp84
a(g19
I62
tp85
a(g21
g22
tp86
a(g24
I59
tp87
a(g26
g56
tp88
a(g29
I61
tp89
asba(iplayerTypes
tPlayer
p90
(dp91
g8
S'Andy Murray'
p92
sg10
I5
sg11
I1
sg12
S'm'
sg13
I93
sg14
(lp93
(g16
I31
tp94
a(g19
g37
tp95
a(g21
I30
tp96
a(g24
g40
tp97
a(g26
I32
tp98
a(g29
S'DNP'
p99
tp100
asbasba(iplayerTypes
fPlayer
p101
(dp102
g4
(lp103
(iplayerTypes
tPlayer
p104
(dp105
g8
S'Rafael Nadal'
p106
sg10
I5
sg11
I1
sg12
S'm'
sg13
I0
sg14
(lp107
(g16
g17
tp108
a(g19
S'(15)'
tp109
a(g21
g22
tp110
a(g24
S'(47)'
tp111
a(g26
g56
tp112
a(g29
S'(44)'
tp113
asba(iplayerTypes
tPlayer
p114
(dp115
g8
S'Marin Cilic'
p116
sg10
I1
sg11
I0
sg12
S'm'
sg13
I84
sg14
(lp117
(g16
I54
tp118
a(g19
g37
tp119
a(g21
I30
tp120
a(g24
g66
tp121
a(g26
g27
tp122
a(g29
g30
tp123
asbasg44
I772
sg8
S'Geoff'
p124
sg46
(lp125
(iplayerTypes
tPlayer
p126
(dp127
g8
S'Jo-Wilfried Tsonga'
p128
sg10
I1
sg11
I1
sg12
S'm'
sg13
I54
sg14
(lp129
(g16
S'(45)'
tp130
a(g19
g37
tp131
a(g21
S'(39)'
tp132
a(g24
g40
tp133
a(g26
I54
tp134
a(g29
g99
tp135
asba(iplayerTypes
tPlayer
p136
(dp137
g8
S'Milos Raonic'
p138
sg10
I2
sg11
I1
sg12
S'm'
sg13
I240
sg14
(lp139
(g16
g17
tp140
a(g19
I67
tp141
a(g21
g22
tp142
a(g24
I97
tp143
a(g26
g56
tp144
a(g29
I76
tp145
asba(iplayerTypes
tPlayer
p146
(dp147
g8
S'Andy Murray'
p148
sg10
I3
sg11
I1
sg12
S'm'
sg13
I139
sg14
(lp149
(g16
I45
tp150
a(g19
g37
tp151
a(g21
I49
tp152
a(g24
g40
tp153
a(g26
I45
tp154
a(g29
g99
tp155
asba(iplayerTypes
tPlayer
p156
(dp157
g8
S'Novak Djokovic'
p158
sg10
I4
sg11
I0
sg12
S'm'
sg13
I105
sg14
(lp159
(g16
g17
tp160
a(g19
I50
tp161
a(g21
g22
tp162
a(g24
I55
tp163
a(g26
g27
tp164
a(g29
g30
tp165
asba(iplayerTypes
tPlayer
p166
(dp167
g8
S'Stan Wawrinka'
p168
sg10
I5
sg11
I1
sg12
S'm'
sg13
I150
sg14
(lp169
(g16
I70
tp170
a(g19
g37
tp171
a(g21
I40
tp172
a(g24
g40
tp173
a(g26
I40
tp174
a(g29
g99
tp175
asbasba(iplayerTypes
fPlayer
p176
(dp177
g4
(lp178
(iplayerTypes
tPlayer
p179
(dp180
g8
S'Grigor Dimitrov'
p181
sg10
I4
sg11
I1
sg12
S'm'
sg13
I62
sg14
(lp182
(g16
g17
tp183
a(g19
I62
tp184
a(g21
g22
tp185
a(g24
S'(54)'
tp186
a(g26
g56
tp187
a(g29
S'(35)'
tp188
asba(iplayerTypes
tPlayer
p189
(dp190
g8
S'Rafael Nadal'
p191
sg10
I3
sg11
I1
sg12
S'm'
sg13
I88
sg14
(lp192
(g16
g17
tp193
a(g19
I38
tp194
a(g21
g22
tp195
a(g24
I50
tp196
a(g26
g56
tp197
a(g29
S'(40)'
tp198
asbasg44
I771
sg8
S'Santay'
p199
sg46
(lp200
(iplayerTypes
tPlayer
p201
(dp202
g8
S'Milos Raonic'
p203
sg10
I1
sg11
I1
sg12
S'm'
sg13
I147
sg14
(lp204
(g16
g17
tp205
a(g19
I39
tp206
a(g21
g22
tp207
a(g24
I54
tp208
a(g26
g56
tp209
a(g29
I54
tp210
asba(iplayerTypes
tPlayer
p211
(dp212
g8
S'Roger Federer'
p213
sg10
I2
sg11
I1
sg12
S'm'
sg13
I174
sg14
(lp214
(g16
I56
tp215
a(g19
g37
tp216
a(g21
I55
tp217
a(g24
g40
tp218
a(g26
I63
tp219
a(g29
g99
tp220
asba(iplayerTypes
tPlayer
p221
(dp222
g8
S'Dominic Thiem'
p223
sg10
I3
sg11
I1
sg12
S'm'
sg13
I45
sg14
(lp224
(g16
g17
tp225
a(g19
S'(39)'
tp226
a(g21
g22
tp227
a(g24
S'(43)'
tp228
a(g26
g56
tp229
a(g29
I45
tp230
asba(iplayerTypes
tPlayer
p231
(dp232
g8
S'Angelique Kerber'
p233
sg10
I4
sg11
I1
sg12
S'f'
sg13
I112
sg14
(lp234
(g16
S'(64)'
tp235
a(g19
g37
tp236
a(g21
I51
tp237
a(g24
g40
tp238
a(g26
I61
tp239
a(g29
g99
tp240
asba(iplayerTypes
tPlayer
p241
(dp242
g8
S'Kei Nishikori'
p243
sg10
I5
sg11
I1
sg12
S'm'
sg13
I143
sg14
(lp244
(g16
I65
tp245
a(g19
g37
tp246
a(g21
I56
tp247
a(g24
g40
tp248
a(g26
I22
tp249
a(g29
g99
tp250
asbasba(iplayerTypes
fPlayer
p251
(dp252
g4
(lp253
(iplayerTypes
tPlayer
p254
(dp255
g8
S'Nick Kyrgios'
p256
sg10
I1
sg11
I0
sg12
S'm'
sg13
I15
sg14
(lp257
(g16
I15
tp258
a(g19
g37
tp259
a(g21
S'(60)'
tp260
a(g24
g66
tp261
a(g26
g27
tp262
a(g29
g30
tp263
asba(iplayerTypes
tPlayer
p264
(dp265
g8
S'John Isner'
p266
sg10
I2
sg11
I0
sg12
S'm'
sg13
I229
sg14
(lp267
(g16
I98
tp268
a(g19
g37
tp269
a(g21
I131
tp270
a(g24
g66
tp271
a(g26
g27
tp272
a(g29
g30
tp273
asbasg44
I770
sg8
S'Ben'
p274
sg46
(lp275
(iplayerTypes
tPlayer
p276
(dp277
g8
S'Roger Federer'
p278
sg10
I1
sg11
I1
sg12
S'm'
sg13
I63
sg14
(lp279
(g16
S'(54)'
tp280
a(g19
g37
tp281
a(g21
I45
tp282
a(g24
g40
tp283
a(g26
I18
tp284
a(g29
g99
tp285
asba(iplayerTypes
tPlayer
p286
(dp287
g8
S'Andy Murray'
p288
sg10
I2
sg11
I1
sg12
S'm'
sg13
I58
sg14
(lp289
(g16
S'(23)'
tp290
a(g19
g37
tp291
a(g21
S'(36)'
tp292
a(g24
g40
tp293
a(g26
I58
tp294
a(g29
g99
tp295
asba(iplayerTypes
tPlayer
p296
(dp297
g8
S'Angelique Kerber'
p298
sg10
I3
sg11
I1
sg12
S'f'
sg13
I143
sg14
(lp299
(g16
I43
tp300
a(g19
g37
tp301
a(g21
I47
tp302
a(g24
g40
tp303
a(g26
I53
tp304
a(g29
g99
tp305
asba(iplayerTypes
tPlayer
p306
(dp307
g8
S'Stan Wawrinka'
p308
sg10
I4
sg11
I1
sg12
S'm'
sg13
I155
sg14
(lp309
(g16
I47
tp310
a(g19
g37
tp311
a(g21
I56
tp312
a(g24
g40
tp313
a(g26
I52
tp314
a(g29
g99
tp315
asba(iplayerTypes
tPlayer
p316
(dp317
g8
S'Novak Djokovic'
p318
sg10
I5
sg11
I0
sg12
S'm'
sg13
I107
sg14
(lp319
(g16
g17
tp320
a(g19
I39
tp321
a(g21
g22
tp322
a(g24
I68
tp323
a(g26
g27
tp324
a(g29
g30
tp325
asbasba(iplayerTypes
fPlayer
p326
(dp327
g4
(lp328
(iplayerTypes
tPlayer
p329
(dp330
g8
S'Gael Monfils'
p331
sg10
I2
sg11
I1
sg12
S'm'
sg13
I0
sg14
(lp332
(g16
g17
tp333
a(g19
S'(47)'
tp334
a(g21
g22
tp335
a(g24
S'(42)'
tp336
a(g26
g56
tp337
a(g29
S'(25)'
tp338
asba(iplayerTypes
tPlayer
p339
(dp340
g8
S'John Isner'
p341
sg10
I1
sg11
I0
sg12
S'm'
sg13
I168
sg14
(lp342
(g16
I81
tp343
a(g19
g37
tp344
a(g21
I87
tp345
a(g24
g66
tp346
a(g26
g27
tp347
a(g29
g30
tp348
asbasg44
I714
sg8
S'Jack'
p349
sg46
(lp350
(iplayerTypes
tPlayer
p351
(dp352
g8
S'Dominic Thiem'
p353
sg10
I1
sg11
I1
sg12
S'm'
sg13
I21
sg14
(lp354
(g16
g17
tp355
a(g19
S'(47)'
tp356
a(g21
g22
tp357
a(g24
S'(24)'
tp358
a(g26
g56
tp359
a(g29
I21
tp360
asba(iplayerTypes
tPlayer
p361
(dp362
g8
S'Stan Wawrinka'
p363
sg10
I2
sg11
I1
sg12
S'm'
sg13
I188
sg14
(lp364
(g16
I77
tp365
a(g19
g37
tp366
a(g21
I67
tp367
a(g24
g40
tp368
a(g26
I44
tp369
a(g29
g99
tp370
asba(iplayerTypes
tPlayer
p371
(dp372
g8
S'Novak Djokovic'
p373
sg10
I3
sg11
I0
sg12
S'm'
sg13
I88
sg14
(lp374
(g16
g17
tp375
a(g19
I50
tp376
a(g21
g22
tp377
a(g24
I38
tp378
a(g26
g27
tp379
a(g29
g30
tp380
asba(iplayerTypes
tPlayer
p381
(dp382
g8
S'Andy Murray'
p383
sg10
I4
sg11
I1
sg12
S'm'
sg13
I161
sg14
(lp384
(g16
I43
tp385
a(g19
g37
tp386
a(g21
I68
tp387
a(g24
g40
tp388
a(g26
I50
tp389
a(g29
g99
tp390
asba(iplayerTypes
tPlayer
p391
(dp392
g8
S'Roger Federer'
p393
sg10
I5
sg11
I1
sg12
S'm'
sg13
I88
sg14
(lp394
(g16
I31
tp395
a(g19
g37
tp396
a(g21
I37
tp397
a(g24
g40
tp398
a(g26
I20
tp399
a(g29
g99
tp400
asbasba.