(lp1
(iplayerTypes
fPlayer
p2
(dp3
S'bench'
p4
(lp5
(iplayerTypes
tPlayer
p6
(dp7
S'name'
p8
S'Nick Kyrgios'
p9
sS'attribute'
p10
I1
sS'alive'
p11
I0
sS'sex'
p12
S'm'
sS'points'
p13
I15
sS'history'
p14
(lp15
(S'1/16/2017'
p16
I15
tp17
a(S'1/17/2017'
p18
S'DNP'
p19
tp20
a(S'1/18/2017'
p21
S'(60)'
tp22
a(S'1/19/2017'
p23
S'OUT'
p24
tp25
a(S'1/20/2017'
p26
S'OUT'
p27
tp28
a(S'1/21/2017'
p29
S'OUT'
p30
tp31
a(S'1/22/2017'
p32
S'OUT'
p33
tp34
a(S'1/23/2017'
p35
S'OUT'
p36
tp37
a(S'1/24/2017'
p38
S'OUT'
p39
tp40
a(S'1/25/2017'
p41
S'OUT'
p42
tp43
a(S'1/26/2017'
p44
S'OUT'
p45
tp46
a(S'1/27/2017'
p47
S'OUT'
p48
tp49
a(S'1/27/2017'
p50
S'OUT'
p51
tp52
asba(iplayerTypes
tPlayer
p53
(dp54
g8
S'John Isner'
p55
sg10
I2
sg11
I0
sg12
S'm'
sg13
I229
sg14
(lp56
(g16
I98
tp57
a(g18
g19
tp58
a(g21
I131
tp59
a(g23
g24
tp60
a(g26
g27
tp61
a(g29
g30
tp62
a(g32
g33
tp63
a(g35
g36
tp64
a(g38
g39
tp65
a(g41
g42
tp66
a(g44
g45
tp67
a(g47
g48
tp68
a(g50
g51
tp69
asba(iplayerTypes
tPlayer
p70
(dp71
g8
S'Novak Djokovic'
p72
sg10
I5
sg11
I0
sg12
S'm'
sg13
I107
sg14
(lp73
(g16
S'DNP'
p74
tp75
a(g18
I39
tp76
a(g21
S'DNP'
p77
tp78
a(g23
I68
tp79
a(g26
g27
tp80
a(g29
g30
tp81
a(g32
g33
tp82
a(g35
g36
tp83
a(g38
g39
tp84
a(g41
g42
tp85
a(g44
g45
tp86
a(g47
g48
tp87
a(g50
g51
tp88
asbasS'total'
p89
I1370
sg8
S'Ben'
p90
sS'team'
p91
(lp92
(iplayerTypes
tPlayer
p93
(dp94
g8
S'Roger Federer'
p95
sg10
I1
sg11
I1
sg12
S'm'
sg13
I165
sg14
(lp96
(g16
S'(54)'
tp97
a(g18
g19
tp98
a(g21
I45
tp99
a(g23
S'DNP'
p100
tp101
a(g26
I18
tp102
a(g29
S'DNP'
p103
tp104
a(g32
I54
tp105
a(g35
S'DNP'
p106
tp107
a(g38
I24
tp108
a(g41
S'DNP'
p109
tp110
a(g44
I24
tp111
a(g47
S'DNP'
p112
tp113
a(g50
S'DNP'
p114
tp115
asba(iplayerTypes
tPlayer
p116
(dp117
g8
S'Andy Murray'
p118
sg10
I2
sg11
I0
sg12
S'm'
sg13
I172
sg14
(lp119
(g16
S'(23)'
tp120
a(g18
g19
tp121
a(g21
S'(36)'
tp122
a(g23
g100
tp123
a(g26
I58
tp124
a(g29
g103
tp125
a(g32
I114
tp126
a(g35
g36
tp127
a(g38
g39
tp128
a(g41
g42
tp129
a(g44
g45
tp130
a(g47
g48
tp131
a(g50
g51
tp132
asba(iplayerTypes
tPlayer
p133
(dp134
g8
S'Angelique Kerber'
p135
sg10
I3
sg11
I0
sg12
S'f'
sg13
I177
sg14
(lp136
(g16
I43
tp137
a(g18
g19
tp138
a(g21
I47
tp139
a(g23
g100
tp140
a(g26
I53
tp141
a(g29
g103
tp142
a(g32
I34
tp143
a(g35
g36
tp144
a(g38
g39
tp145
a(g41
g42
tp146
a(g44
g45
tp147
a(g47
g48
tp148
a(g50
g51
tp149
asba(iplayerTypes
tPlayer
p150
(dp151
g8
S'Stan Wawrinka'
p152
sg10
I4
sg11
I0
sg12
S'm'
sg13
I357
sg14
(lp153
(g16
I47
tp154
a(g18
g19
tp155
a(g21
I56
tp156
a(g23
g100
tp157
a(g26
I52
tp158
a(g29
g103
tp159
a(g32
I67
tp160
a(g35
g106
tp161
a(g38
I65
tp162
a(g41
g109
tp163
a(g44
I70
tp164
a(g47
g48
tp165
a(g50
g51
tp166
asba(iplayerTypes
tPlayer
p167
(dp168
g8
S'Grigor Dimitrov'
p169
sg10
I5
sg11
I0
sg12
S'm'
sg13
I148
sg14
(lp170
(S'0/0/0'
S'(-)'
tp171
ag171
ag171
ag171
ag171
ag171
a(g32
S'DNP'
p172
tp173
a(g35
I39
tp174
a(g38
S'DNP'
p175
tp176
a(g41
I64
tp177
a(g44
S'DNP'
p178
tp179
a(g47
g112
tp180
a(g50
I45
tp181
asbasba(iplayerTypes
fPlayer
p182
(dp183
g4
(lp184
(iplayerTypes
tPlayer
p185
(dp186
g8
S'Dominic Thiem'
p187
sg10
I3
sg11
I0
sg12
S'm'
sg13
I78
sg14
(lp188
(g16
g74
tp189
a(g18
S'(39)'
tp190
a(g21
g77
tp191
a(g23
S'(43)'
tp192
a(g26
S'DNP'
p193
tp194
a(g29
I45
tp195
a(g32
g172
tp196
a(g35
I33
tp197
a(g38
g39
tp198
a(g41
g42
tp199
a(g44
g45
tp200
a(g47
g48
tp201
a(g50
g51
tp202
asba(iplayerTypes
tPlayer
p203
(dp204
g8
S'Angelique Kerber'
p205
sg10
I4
sg11
I0
sg12
S'f'
sg13
I151
sg14
(lp206
(g16
S'(64)'
tp207
a(g18
g19
tp208
a(g21
I51
tp209
a(g23
g100
tp210
a(g26
I61
tp211
a(g29
g103
tp212
a(g32
I39
tp213
a(g35
g36
tp214
a(g38
g39
tp215
a(g41
g42
tp216
a(g44
g45
tp217
a(g47
g48
tp218
a(g50
g51
tp219
asbasg89
I1365
sg8
S'Santay'
p220
sg91
(lp221
(iplayerTypes
tPlayer
p222
(dp223
g8
S'Milos Raonic'
p224
sg10
I1
sg11
I0
sg12
S'm'
sg13
I255
sg14
(lp225
(g16
g74
tp226
a(g18
I39
tp227
a(g21
g77
tp228
a(g23
I54
tp229
a(g26
g193
tp230
a(g29
I54
tp231
a(g32
g172
tp232
a(g35
I72
tp233
a(g38
g175
tp234
a(g41
I36
tp235
a(g44
g45
tp236
a(g47
g48
tp237
a(g50
g51
tp238
asba(iplayerTypes
tPlayer
p239
(dp240
g8
S'Roger Federer'
p241
sg10
I2
sg11
I1
sg12
S'm'
sg13
I454
sg14
(lp242
(g16
I56
tp243
a(g18
g19
tp244
a(g21
I55
tp245
a(g23
g100
tp246
a(g26
I63
tp247
a(g29
g103
tp248
a(g32
I119
tp249
a(g35
g106
tp250
a(g38
I117
tp251
a(g41
g109
tp252
a(g44
I44
tp253
a(g47
g112
tp254
a(g50
g114
tp255
asba(iplayerTypes
tPlayer
p256
(dp257
g8
S'Rafael Nadal'
p258
sg10
I3
sg11
I1
sg12
S'm'
sg13
I124
sg14
(lp259
(g16
g74
tp260
a(g18
I38
tp261
a(g21
g77
tp262
a(g23
I50
tp263
a(g26
g193
tp264
a(g29
S'(40)'
tp265
a(g32
g172
tp266
a(g35
S'(43)'
tp267
a(g38
g175
tp268
a(g41
S'(36)'
tp269
a(g44
g178
tp270
a(g47
g112
tp271
a(g50
I36
tp272
asba(iplayerTypes
tPlayer
p273
(dp274
g8
S'Grigor Dimitrov'
p275
sg10
I4
sg11
I0
sg12
S'm'
sg13
I111
sg14
(lp276
(g16
g74
tp277
a(g18
I62
tp278
a(g21
g77
tp279
a(g23
S'(54)'
tp280
a(g26
g193
tp281
a(g29
S'(35)'
tp282
a(g32
g172
tp283
a(g35
S'(62)'
tp284
a(g38
g175
tp285
a(g41
S'(43)'
tp286
a(g44
g178
tp287
a(g47
g112
tp288
a(g50
I49
tp289
asba(iplayerTypes
tPlayer
p290
(dp291
g8
S'Kei Nishikori'
p292
sg10
I5
sg11
I0
sg12
S'm'
sg13
I192
sg14
(lp293
(g16
I65
tp294
a(g18
g19
tp295
a(g21
I56
tp296
a(g23
g100
tp297
a(g26
I22
tp298
a(g29
g103
tp299
a(g32
I49
tp300
a(g35
g36
tp301
a(g38
g39
tp302
a(g41
g42
tp303
a(g44
g45
tp304
a(g47
g48
tp305
a(g50
g51
tp306
asbasba(iplayerTypes
fPlayer
p307
(dp308
g4
(lp309
(iplayerTypes
tPlayer
p310
(dp311
g8
S'Novak Djokovic'
p312
sg10
I2
sg11
I0
sg12
S'm'
sg13
I0
sg14
(lp313
(g16
g74
tp314
a(g18
S'(14)'
tp315
a(g21
g77
tp316
a(g23
S'(64)'
tp317
a(g26
g27
tp318
a(g29
g30
tp319
a(g32
g33
tp320
a(g35
g36
tp321
a(g38
g39
tp322
a(g41
g42
tp323
a(g44
g45
tp324
a(g47
g48
tp325
a(g50
g51
tp326
asba(iplayerTypes
tPlayer
p327
(dp328
g8
S'Tomas Berdych'
p329
sg10
I2
sg11
I0
sg12
S'm'
sg13
I38
sg14
(lp330
(g16
S'(10)'
tp331
a(g18
g19
tp332
a(g21
S'(43)'
tp333
a(g23
g100
tp334
a(g26
I38
tp335
a(g29
g30
tp336
a(g32
g33
tp337
a(g35
g36
tp338
a(g38
g39
tp339
a(g41
g42
tp340
a(g44
g45
tp341
a(g47
g48
tp342
a(g50
g51
tp343
asba(iplayerTypes
tPlayer
p344
(dp345
g8
S'Marin Cilic'
p346
sg10
I2
sg11
I0
sg12
S'm'
sg13
I146
sg14
(lp347
(g16
I105
tp348
a(g18
g19
tp349
a(g21
I41
tp350
a(g23
g24
tp351
a(g26
g27
tp352
a(g29
g30
tp353
a(g32
g33
tp354
a(g35
g36
tp355
a(g38
g39
tp356
a(g41
g42
tp357
a(g44
g45
tp358
a(g47
g48
tp359
a(g50
g51
tp360
asbasg89
I1296
sg8
S'Steve'
p361
sg91
(lp362
(iplayerTypes
tPlayer
p363
(dp364
g8
S'Ivo Karlovic'
p365
sg10
I1
sg11
I0
sg12
S'm'
sg13
I291
sg14
(lp366
(g16
g74
tp367
a(g18
I189
tp368
a(g21
g77
tp369
a(g23
I36
tp370
a(g26
g193
tp371
a(g29
I66
tp372
a(g32
g33
tp373
a(g35
g36
tp374
a(g38
g39
tp375
a(g41
g42
tp376
a(g44
g45
tp377
a(g47
g48
tp378
a(g50
g51
tp379
asba(iplayerTypes
tPlayer
p380
(dp381
g8
S'Jo-Wilfried Tsonga'
p382
sg10
I2
sg11
I0
sg12
S'm'
sg13
I104
sg14
(lp383
(S'0/0/0'
S'(-)'
tp384
ag384
ag384
ag384
ag384
ag384
a(g32
I89
tp385
a(g35
g106
tp386
a(g38
I15
tp387
a(g41
g42
tp388
a(g44
g45
tp389
a(g47
g48
tp390
a(g50
g51
tp391
asba(iplayerTypes
tPlayer
p392
(dp393
g8
S'Serena Williams'
p394
sg10
I3
sg11
I1
sg12
S'f'
sg13
I292
sg14
(lp395
(g16
g74
tp396
a(g18
I46
tp397
a(g21
g77
tp398
a(g23
I38
tp399
a(g26
g193
tp400
a(g29
I54
tp401
a(g32
g172
tp402
a(g35
I51
tp403
a(g38
g175
tp404
a(g41
I48
tp405
a(g44
I55
tp406
a(g47
g112
tp407
a(g50
g114
tp408
asba(iplayerTypes
tPlayer
p409
(dp410
g8
S'Milos Raonic'
p411
sg10
I4
sg11
I0
sg12
S'm'
sg13
I286
sg14
(lp412
(g16
g74
tp413
a(g18
I62
tp414
a(g21
g77
tp415
a(g23
I59
tp416
a(g26
g193
tp417
a(g29
I61
tp418
a(g32
g172
tp419
a(g35
I48
tp420
a(g38
g175
tp421
a(g41
I56
tp422
a(g44
g45
tp423
a(g47
g48
tp424
a(g50
g51
tp425
asba(iplayerTypes
tPlayer
p426
(dp427
g8
S'Andy Murray'
p428
sg10
I5
sg11
I0
sg12
S'm'
sg13
I139
sg14
(lp429
(g16
I31
tp430
a(g18
g19
tp431
a(g21
I30
tp432
a(g23
g100
tp433
a(g26
I32
tp434
a(g29
g103
tp435
a(g32
I46
tp436
a(g35
g36
tp437
a(g38
g39
tp438
a(g41
g42
tp439
a(g44
g45
tp440
a(g47
g48
tp441
a(g50
g51
tp442
asbasba(iplayerTypes
fPlayer
p443
(dp444
g4
(lp445
(iplayerTypes
tPlayer
p446
(dp447
g8
S'Rafael Nadal'
p448
sg10
I5
sg11
I1
sg12
S'm'
sg13
I0
sg14
(lp449
(g16
g74
tp450
a(g18
S'(15)'
tp451
a(g21
g77
tp452
a(g23
S'(47)'
tp453
a(g26
g193
tp454
a(g29
S'(44)'
tp455
a(g32
g172
tp456
a(g35
S'(36)'
tp457
a(g38
g175
tp458
a(g41
S'(30)'
tp459
a(g44
g178
tp460
a(g47
g112
tp461
a(g50
S'(73)'
tp462
asba(iplayerTypes
tPlayer
p463
(dp464
g8
S'Marin Cilic'
p465
sg10
I1
sg11
I0
sg12
S'm'
sg13
I84
sg14
(lp466
(g16
I54
tp467
a(g18
g19
tp468
a(g21
I30
tp469
a(g23
g24
tp470
a(g26
g27
tp471
a(g29
g30
tp472
a(g32
g33
tp473
a(g35
g36
tp474
a(g38
g39
tp475
a(g41
g42
tp476
a(g44
g45
tp477
a(g47
g48
tp478
a(g50
g51
tp479
asba(iplayerTypes
tPlayer
p480
(dp481
g8
S'Novak Djokovic'
p482
sg10
I4
sg11
I0
sg12
S'm'
sg13
I105
sg14
(lp483
(g16
g74
tp484
a(g18
I50
tp485
a(g21
g77
tp486
a(g23
I55
tp487
a(g26
g27
tp488
a(g29
g30
tp489
a(g32
g33
tp490
a(g35
g36
tp491
a(g38
g39
tp492
a(g41
g42
tp493
a(g44
g45
tp494
a(g47
g48
tp495
a(g50
g51
tp496
asbasg89
I1140
sg8
S'Geoff'
p497
sg91
(lp498
(iplayerTypes
tPlayer
p499
(dp500
g8
S'Jo-Wilfried Tsonga'
p501
sg10
I1
sg11
I0
sg12
S'm'
sg13
I111
sg14
(lp502
(g16
S'(45)'
tp503
a(g18
g19
tp504
a(g21
S'(39)'
tp505
a(g23
g100
tp506
a(g26
I54
tp507
a(g29
g103
tp508
a(g32
I45
tp509
a(g35
g106
tp510
a(g38
I12
tp511
a(g41
g42
tp512
a(g44
g45
tp513
a(g47
g48
tp514
a(g50
g51
tp515
asba(iplayerTypes
tPlayer
p516
(dp517
g8
S'Milos Raonic'
p518
sg10
I2
sg11
I0
sg12
S'm'
sg13
I381
sg14
(lp519
(g16
g74
tp520
a(g18
I67
tp521
a(g21
g77
tp522
a(g23
I97
tp523
a(g26
g193
tp524
a(g29
I76
tp525
a(g32
g172
tp526
a(g35
I95
tp527
a(g38
g175
tp528
a(g41
I46
tp529
a(g44
g45
tp530
a(g47
g48
tp531
a(g50
g51
tp532
asba(iplayerTypes
tPlayer
p533
(dp534
g8
S'Andy Murray'
p535
sg10
I3
sg11
I0
sg12
S'm'
sg13
I180
sg14
(lp536
(g16
I45
tp537
a(g18
g19
tp538
a(g21
I49
tp539
a(g23
g100
tp540
a(g26
I45
tp541
a(g29
g103
tp542
a(g32
I41
tp543
a(g35
g36
tp544
a(g38
g39
tp545
a(g41
g42
tp546
a(g44
g45
tp547
a(g47
g48
tp548
a(g50
g51
tp549
asba(iplayerTypes
tPlayer
p550
(dp551
g8
S'Dominic Thiem'
p552
sg10
I4
sg11
I0
sg12
S'm'
sg13
I45
sg14
(lp553
(S'0/0/0'
S'(-)'
tp554
ag554
ag554
ag554
ag554
ag554
a(g32
g172
tp555
a(g35
I45
tp556
a(g38
g39
tp557
a(g41
g42
tp558
a(g44
g45
tp559
a(g47
g48
tp560
a(g50
g51
tp561
asba(iplayerTypes
tPlayer
p562
(dp563
g8
S'Stan Wawrinka'
p564
sg10
I5
sg11
I0
sg12
S'm'
sg13
I234
sg14
(lp565
(g16
I70
tp566
a(g18
g19
tp567
a(g21
I40
tp568
a(g23
g100
tp569
a(g26
I40
tp570
a(g29
g103
tp571
a(g32
I14
tp572
a(g35
g106
tp573
a(g38
I37
tp574
a(g41
g109
tp575
a(g44
I33
tp576
a(g47
g48
tp577
a(g50
g51
tp578
asbasba(iplayerTypes
fPlayer
p579
(dp580
g4
(lp581
(iplayerTypes
tPlayer
p582
(dp583
g8
S'Gael Monfils'
p584
sg10
I2
sg11
I0
sg12
S'm'
sg13
I0
sg14
(lp585
(g16
g74
tp586
a(g18
S'(47)'
tp587
a(g21
g77
tp588
a(g23
S'(42)'
tp589
a(g26
g193
tp590
a(g29
S'(25)'
tp591
a(g32
g172
tp592
a(g35
S'(40)'
tp593
a(g38
g39
tp594
a(g41
g42
tp595
a(g44
g45
tp596
a(g47
g48
tp597
a(g50
g51
tp598
asba(iplayerTypes
tPlayer
p599
(dp600
g8
S'John Isner'
p601
sg10
I1
sg11
I0
sg12
S'm'
sg13
I168
sg14
(lp602
(g16
I81
tp603
a(g18
g19
tp604
a(g21
I87
tp605
a(g23
g24
tp606
a(g26
g27
tp607
a(g29
g30
tp608
a(g32
g33
tp609
a(g35
g36
tp610
a(g38
g39
tp611
a(g41
g42
tp612
a(g44
g45
tp613
a(g47
g48
tp614
a(g50
g51
tp615
asba(iplayerTypes
tPlayer
p616
(dp617
g8
S'Novak Djokovic'
p618
sg10
I3
sg11
I0
sg12
S'm'
sg13
I88
sg14
(lp619
(g16
g74
tp620
a(g18
I50
tp621
a(g21
g77
tp622
a(g23
I38
tp623
a(g26
g27
tp624
a(g29
g30
tp625
a(g32
g33
tp626
a(g35
g36
tp627
a(g38
g39
tp628
a(g41
g42
tp629
a(g44
g45
tp630
a(g47
g48
tp631
a(g50
g51
tp632
asbasg89
I1119
sg8
S'Jack'
p633
sg91
(lp634
(iplayerTypes
tPlayer
p635
(dp636
g8
S'Dominic Thiem'
p637
sg10
I1
sg11
I0
sg12
S'm'
sg13
I45
sg14
(lp638
(g16
g74
tp639
a(g18
S'(47)'
tp640
a(g21
g77
tp641
a(g23
S'(24)'
tp642
a(g26
g193
tp643
a(g29
I21
tp644
a(g32
g172
tp645
a(g35
I24
tp646
a(g38
g39
tp647
a(g41
g42
tp648
a(g44
g45
tp649
a(g47
g48
tp650
a(g50
g51
tp651
asba(iplayerTypes
tPlayer
p652
(dp653
g8
S'Stan Wawrinka'
p654
sg10
I2
sg11
I0
sg12
S'm'
sg13
I362
sg14
(lp655
(g16
I77
tp656
a(g18
g19
tp657
a(g21
I67
tp658
a(g23
g100
tp659
a(g26
I44
tp660
a(g29
g103
tp661
a(g32
I65
tp662
a(g35
g106
tp663
a(g38
I54
tp664
a(g41
g109
tp665
a(g44
I55
tp666
a(g47
g48
tp667
a(g50
g51
tp668
asba(iplayerTypes
tPlayer
p669
(dp670
g8
S'Kei Nishikori'
p671
sg10
I3
sg11
I0
sg12
S'm'
sg13
I30
sg14
(lp672
(S'0/0/0'
S'(-)'
tp673
ag673
ag673
ag673
ag673
ag673
a(g32
I30
tp674
a(g35
g36
tp675
a(g38
g39
tp676
a(g41
g42
tp677
a(g44
g45
tp678
a(g47
g48
tp679
a(g50
g51
tp680
asba(iplayerTypes
tPlayer
p681
(dp682
g8
S'Andy Murray'
p683
sg10
I4
sg11
I0
sg12
S'm'
sg13
I197
sg14
(lp684
(g16
I43
tp685
a(g18
g19
tp686
a(g21
I68
tp687
a(g23
g100
tp688
a(g26
I50
tp689
a(g29
g103
tp690
a(g32
I36
tp691
a(g35
g36
tp692
a(g38
g39
tp693
a(g41
g42
tp694
a(g44
g45
tp695
a(g47
g48
tp696
a(g50
g51
tp697
asba(iplayerTypes
tPlayer
p698
(dp699
g8
S'Roger Federer'
p700
sg10
I5
sg11
I1
sg12
S'm'
sg13
I229
sg14
(lp701
(g16
I31
tp702
a(g18
g19
tp703
a(g21
I37
tp704
a(g23
g100
tp705
a(g26
I20
tp706
a(g29
g103
tp707
a(g32
I61
tp708
a(g35
g106
tp709
a(g38
I32
tp710
a(g41
g109
tp711
a(g44
I48
tp712
a(g47
g112
tp713
a(g50
g114
tp714
asbasba.