(lp1
(iplayerTypes
fPlayer
p2
(dp3
S'bench'
p4
(lp5
(iplayerTypes
tPlayer
p6
(dp7
S'name'
p8
S'Gael Monfils'
p9
sS'attribute'
p10
I2
sS'alive'
p11
I1
sS'sex'
p12
S'm'
sS'points'
p13
I0
sS'history'
p14
(lp15
(S'1/16/2017'
p16
S'DNP'
p17
tp18
a(S'1/17/2017'
p19
S'(47)'
tp20
a(S'1/18/2017'
p21
S'DNP'
p22
tp23
asba(iplayerTypes
tPlayer
p24
(dp25
g8
S'Dominic Thiem'
p26
sg10
I1
sg11
I1
sg12
S'm'
sg13
I0
sg14
(lp27
(g16
g17
tp28
a(g19
S'(47)'
tp29
a(g21
g22
tp30
asbasS'total'
p31
I541
sg8
S'Jack'
p32
sS'team'
p33
(lp34
(iplayerTypes
tPlayer
p35
(dp36
g8
S'John Isner'
p37
sg10
I1
sg11
I0
sg12
S'm'
sg13
I168
sg14
(lp38
(g16
I81
tp39
a(g19
S'DNP'
p40
tp41
a(g21
I87
tp42
asba(iplayerTypes
tPlayer
p43
(dp44
g8
S'Stan Wawrinka'
p45
sg10
I2
sg11
I1
sg12
S'm'
sg13
I144
sg14
(lp46
(g16
I77
tp47
a(g19
g40
tp48
a(g21
I67
tp49
asba(iplayerTypes
tPlayer
p50
(dp51
g8
S'Novak Djokovic'
p52
sg10
I3
sg11
I1
sg12
S'm'
sg13
I50
sg14
(lp53
(g16
g17
tp54
a(g19
I50
tp55
a(g21
g22
tp56
asba(iplayerTypes
tPlayer
p57
(dp58
g8
S'Andy Murray'
p59
sg10
I4
sg11
I1
sg12
S'm'
sg13
I111
sg14
(lp60
(g16
I43
tp61
a(g19
g40
tp62
a(g21
I68
tp63
asba(iplayerTypes
tPlayer
p64
(dp65
g8
S'Roger Federer'
p66
sg10
I5
sg11
I1
sg12
S'm'
sg13
I68
sg14
(lp67
(g16
I31
tp68
a(g19
g40
tp69
a(g21
I37
tp70
asbasba(iplayerTypes
fPlayer
p71
(dp72
g4
(lp73
(iplayerTypes
tPlayer
p74
(dp75
g8
S'Andy Murray'
p76
sg10
I2
sg11
I1
sg12
S'm'
sg13
I0
sg14
(lp77
(g16
S'(23)'
tp78
a(g19
g40
tp79
a(g21
S'(36)'
tp80
asba(iplayerTypes
tPlayer
p81
(dp82
g8
S'Nick Kyrgios'
p83
sg10
I1
sg11
I0
sg12
S'm'
sg13
I15
sg14
(lp84
(g16
I15
tp85
a(g19
g40
tp86
a(g21
S'(60)'
tp87
asbasg31
I521
sg8
S'Ben'
p88
sg33
(lp89
(iplayerTypes
tPlayer
p90
(dp91
g8
S'Roger Federer'
p92
sg10
I1
sg11
I1
sg12
S'm'
sg13
I45
sg14
(lp93
(g16
S'(54)'
tp94
a(g19
g40
tp95
a(g21
I45
tp96
asba(iplayerTypes
tPlayer
p97
(dp98
g8
S'John Isner'
p99
sg10
I2
sg11
I0
sg12
S'm'
sg13
I229
sg14
(lp100
(g16
I98
tp101
a(g19
g40
tp102
a(g21
I131
tp103
asba(iplayerTypes
tPlayer
p104
(dp105
g8
S'Angelique Kerber'
p106
sg10
I3
sg11
I1
sg12
S'f'
sg13
I90
sg14
(lp107
(g16
I43
tp108
a(g19
g40
tp109
a(g21
I47
tp110
asba(iplayerTypes
tPlayer
p111
(dp112
g8
S'Stan Wawrinka'
p113
sg10
I4
sg11
I1
sg12
S'm'
sg13
I103
sg14
(lp114
(g16
I47
tp115
a(g19
g40
tp116
a(g21
I56
tp117
asba(iplayerTypes
tPlayer
p118
(dp119
g8
S'Novak Djokovic'
p120
sg10
I5
sg11
I1
sg12
S'm'
sg13
I39
sg14
(lp121
(g16
g17
tp122
a(g19
I39
tp123
a(g21
g22
tp124
asbasba(iplayerTypes
fPlayer
p125
(dp126
g4
(lp127
(iplayerTypes
tPlayer
p128
(dp129
g8
S'Tomas Berdych'
p130
sg10
I2
sg11
I1
sg12
S'm'
sg13
I0
sg14
(lp131
(g16
S'(10)'
tp132
a(g19
g40
tp133
a(g21
S'(43)'
tp134
asba(iplayerTypes
tPlayer
p135
(dp136
g8
S'Novak Djokovic'
p137
sg10
I2
sg11
I1
sg12
S'm'
sg13
I0
sg14
(lp138
(g16
g17
tp139
a(g19
S'(14)'
tp140
a(g21
g22
tp141
asbasg31
I504
sg8
S'Steve'
p142
sg33
(lp143
(iplayerTypes
tPlayer
p144
(dp145
g8
S'Ivo Karlovic'
p146
sg10
I1
sg11
I1
sg12
S'm'
sg13
I189
sg14
(lp147
(g16
g17
tp148
a(g19
I189
tp149
a(g21
g22
tp150
asba(iplayerTypes
tPlayer
p151
(dp152
g8
S'Marin Cilic'
p153
sg10
I2
sg11
I0
sg12
S'm'
sg13
I146
sg14
(lp154
(g16
I105
tp155
a(g19
g40
tp156
a(g21
I41
tp157
asba(iplayerTypes
tPlayer
p158
(dp159
g8
S'Serena Williams'
p160
sg10
I3
sg11
I1
sg12
S'f'
sg13
I46
sg14
(lp161
(g16
g17
tp162
a(g19
I46
tp163
a(g21
g22
tp164
asba(iplayerTypes
tPlayer
p165
(dp166
g8
S'Milos Raonic'
p167
sg10
I4
sg11
I1
sg12
S'm'
sg13
I62
sg14
(lp168
(g16
g17
tp169
a(g19
I62
tp170
a(g21
g22
tp171
asba(iplayerTypes
tPlayer
p172
(dp173
g8
S'Andy Murray'
p174
sg10
I5
sg11
I1
sg12
S'm'
sg13
I61
sg14
(lp175
(g16
I31
tp176
a(g19
g40
tp177
a(g21
I30
tp178
asbasba(iplayerTypes
fPlayer
p179
(dp180
g4
(lp181
(iplayerTypes
tPlayer
p182
(dp183
g8
S'Dominic Thiem'
p184
sg10
I3
sg11
I1
sg12
S'm'
sg13
I0
sg14
(lp185
(g16
g17
tp186
a(g19
S'(39)'
tp187
a(g21
g22
tp188
asba(iplayerTypes
tPlayer
p189
(dp190
g8
S'Grigor Dimitrov'
p191
sg10
I4
sg11
I1
sg12
S'm'
sg13
I62
sg14
(lp192
(g16
g17
tp193
a(g19
I62
tp194
a(g21
g22
tp195
asbasg31
I422
sg8
S'Santay'
p196
sg33
(lp197
(iplayerTypes
tPlayer
p198
(dp199
g8
S'Milos Raonic'
p200
sg10
I1
sg11
I1
sg12
S'm'
sg13
I39
sg14
(lp201
(g16
g17
tp202
a(g19
I39
tp203
a(g21
g22
tp204
asba(iplayerTypes
tPlayer
p205
(dp206
g8
S'Roger Federer'
p207
sg10
I2
sg11
I1
sg12
S'm'
sg13
I111
sg14
(lp208
(g16
I56
tp209
a(g19
g40
tp210
a(g21
I55
tp211
asba(iplayerTypes
tPlayer
p212
(dp213
g8
S'Rafael Nadal'
p214
sg10
I3
sg11
I1
sg12
S'm'
sg13
I38
sg14
(lp215
(g16
g17
tp216
a(g19
I38
tp217
a(g21
g22
tp218
asba(iplayerTypes
tPlayer
p219
(dp220
g8
S'Angelique Kerber'
p221
sg10
I4
sg11
I1
sg12
S'f'
sg13
I51
sg14
(lp222
(g16
S'(64)'
tp223
a(g19
g40
tp224
a(g21
I51
tp225
asba(iplayerTypes
tPlayer
p226
(dp227
g8
S'Kei Nishikori'
p228
sg10
I5
sg11
I1
sg12
S'm'
sg13
I121
sg14
(lp229
(g16
I65
tp230
a(g19
g40
tp231
a(g21
I56
tp232
asbasba(iplayerTypes
fPlayer
p233
(dp234
g4
(lp235
(iplayerTypes
tPlayer
p236
(dp237
g8
S'Rafael Nadal'
p238
sg10
I5
sg11
I1
sg12
S'm'
sg13
I0
sg14
(lp239
(g16
g17
tp240
a(g19
S'(15)'
tp241
a(g21
g22
tp242
asba(iplayerTypes
tPlayer
p243
(dp244
g8
S'Jo-Wilfried Tsonga'
p245
sg10
I1
sg11
I1
sg12
S'm'
sg13
I0
sg14
(lp246
(g16
S'(45)'
tp247
a(g19
g40
tp248
a(g21
S'(39)'
tp249
asbasg31
I405
sg8
S'Geoff'
p250
sg33
(lp251
(iplayerTypes
tPlayer
p252
(dp253
g8
S'Marin Cilic'
p254
sg10
I1
sg11
I0
sg12
S'm'
sg13
I84
sg14
(lp255
(g16
I54
tp256
a(g19
g40
tp257
a(g21
I30
tp258
asba(iplayerTypes
tPlayer
p259
(dp260
g8
S'Milos Raonic'
p261
sg10
I2
sg11
I1
sg12
S'm'
sg13
I67
sg14
(lp262
(g16
g17
tp263
a(g19
I67
tp264
a(g21
g22
tp265
asba(iplayerTypes
tPlayer
p266
(dp267
g8
S'Andy Murray'
p268
sg10
I3
sg11
I1
sg12
S'm'
sg13
I94
sg14
(lp269
(g16
I45
tp270
a(g19
g40
tp271
a(g21
I49
tp272
asba(iplayerTypes
tPlayer
p273
(dp274
g8
S'Novak Djokovic'
p275
sg10
I4
sg11
I1
sg12
S'm'
sg13
I50
sg14
(lp276
(g16
g17
tp277
a(g19
I50
tp278
a(g21
g22
tp279
asba(iplayerTypes
tPlayer
p280
(dp281
g8
S'Stan Wawrinka'
p282
sg10
I5
sg11
I1
sg12
S'm'
sg13
I110
sg14
(lp283
(g16
I70
tp284
a(g19
g40
tp285
a(g21
I40
tp286
asbasba.