(lp1
(iplayerTypes
fPlayer
p2
(dp3
S'bench'
p4
(lp5
(iplayerTypes
tPlayer
p6
(dp7
S'name'
p8
S'Novak Djokovic'
p9
sS'attribute'
p10
I2
sS'alive'
p11
I0
sS'sex'
p12
S'm'
sS'points'
p13
I0
sS'history'
p14
(lp15
(S'1/16/2017'
p16
S'DNP'
p17
tp18
a(S'1/17/2017'
p19
S'(14)'
tp20
a(S'1/18/2017'
p21
S'DNP'
p22
tp23
a(S'1/19/2017'
p24
S'(64)'
tp25
a(S'1/20/2017'
p26
S'OUT'
p27
tp28
a(S'1/21/2017'
p29
S'OUT'
p30
tp31
asba(iplayerTypes
tPlayer
p32
(dp33
g8
S'Tomas Berdych'
p34
sg10
I2
sg11
I0
sg12
S'm'
sg13
I38
sg14
(lp35
(g16
S'(10)'
tp36
a(g19
S'DNP'
p37
tp38
a(g21
S'(43)'
tp39
a(g24
S'DNP'
p40
tp41
a(g26
I38
tp42
a(g29
g30
tp43
asba(iplayerTypes
tPlayer
p44
(dp45
g8
S'Marin Cilic'
p46
sg10
I2
sg11
I0
sg12
S'm'
sg13
I146
sg14
(lp47
(g16
I105
tp48
a(g19
g37
tp49
a(g21
I41
tp50
a(g24
S'OUT'
p51
tp52
a(g26
g27
tp53
a(g29
g30
tp54
asbasS'total'
p55
I888
sg8
S'Steve'
p56
sS'team'
p57
(lp58
(iplayerTypes
tPlayer
p59
(dp60
g8
S'Ivo Karlovic'
p61
sg10
I1
sg11
I0
sg12
S'm'
sg13
I291
sg14
(lp62
(g16
g17
tp63
a(g19
I189
tp64
a(g21
g22
tp65
a(g24
I36
tp66
a(g26
S'DNP'
p67
tp68
a(g29
I66
tp69
asba(iplayerTypes
tPlayer
p70
(dp71
g8
S'Jo-Wilfried Tsonga'
p72
sg10
I2
sg11
I1
sg12
S'm'
sg13
I0
sg14
(lp73
(S'0/0/0'
S'(-)'
tp74
ag74
ag74
ag74
ag74
ag74
asba(iplayerTypes
tPlayer
p75
(dp76
g8
S'Serena Williams'
p77
sg10
I3
sg11
I1
sg12
S'f'
sg13
I138
sg14
(lp78
(g16
g17
tp79
a(g19
I46
tp80
a(g21
g22
tp81
a(g24
I38
tp82
a(g26
g67
tp83
a(g29
I54
tp84
asba(iplayerTypes
tPlayer
p85
(dp86
g8
S'Milos Raonic'
p87
sg10
I4
sg11
I1
sg12
S'm'
sg13
I182
sg14
(lp88
(g16
g17
tp89
a(g19
I62
tp90
a(g21
g22
tp91
a(g24
I59
tp92
a(g26
g67
tp93
a(g29
I61
tp94
asba(iplayerTypes
tPlayer
p95
(dp96
g8
S'Andy Murray'
p97
sg10
I5
sg11
I1
sg12
S'm'
sg13
I93
sg14
(lp98
(g16
I31
tp99
a(g19
g37
tp100
a(g21
I30
tp101
a(g24
g40
tp102
a(g26
I32
tp103
a(g29
S'DNP'
p104
tp105
asbasba(iplayerTypes
fPlayer
p106
(dp107
g4
(lp108
(iplayerTypes
tPlayer
p109
(dp110
g8
S'Rafael Nadal'
p111
sg10
I5
sg11
I1
sg12
S'm'
sg13
I0
sg14
(lp112
(g16
g17
tp113
a(g19
S'(15)'
tp114
a(g21
g22
tp115
a(g24
S'(47)'
tp116
a(g26
g67
tp117
a(g29
S'(44)'
tp118
asba(iplayerTypes
tPlayer
p119
(dp120
g8
S'Marin Cilic'
p121
sg10
I1
sg11
I0
sg12
S'm'
sg13
I84
sg14
(lp122
(g16
I54
tp123
a(g19
g37
tp124
a(g21
I30
tp125
a(g24
g51
tp126
a(g26
g27
tp127
a(g29
g30
tp128
asba(iplayerTypes
tPlayer
p129
(dp130
g8
S'Novak Djokovic'
p131
sg10
I4
sg11
I0
sg12
S'm'
sg13
I105
sg14
(lp132
(g16
g17
tp133
a(g19
I50
tp134
a(g21
g22
tp135
a(g24
I55
tp136
a(g26
g27
tp137
a(g29
g30
tp138
asbasg55
I772
sg8
S'Geoff'
p139
sg57
(lp140
(iplayerTypes
tPlayer
p141
(dp142
g8
S'Jo-Wilfried Tsonga'
p143
sg10
I1
sg11
I1
sg12
S'm'
sg13
I54
sg14
(lp144
(g16
S'(45)'
tp145
a(g19
g37
tp146
a(g21
S'(39)'
tp147
a(g24
g40
tp148
a(g26
I54
tp149
a(g29
g104
tp150
asba(iplayerTypes
tPlayer
p151
(dp152
g8
S'Milos Raonic'
p153
sg10
I2
sg11
I1
sg12
S'm'
sg13
I240
sg14
(lp154
(g16
g17
tp155
a(g19
I67
tp156
a(g21
g22
tp157
a(g24
I97
tp158
a(g26
g67
tp159
a(g29
I76
tp160
asba(iplayerTypes
tPlayer
p161
(dp162
g8
S'Andy Murray'
p163
sg10
I3
sg11
I1
sg12
S'm'
sg13
I139
sg14
(lp164
(g16
I45
tp165
a(g19
g37
tp166
a(g21
I49
tp167
a(g24
g40
tp168
a(g26
I45
tp169
a(g29
g104
tp170
asba(iplayerTypes
tPlayer
p171
(dp172
g8
S'Dominic Thiem'
p173
sg10
I4
sg11
I1
sg12
S'm'
sg13
I0
sg14
(lp174
(S'0/0/0'
S'(-)'
tp175
ag175
ag175
ag175
ag175
ag175
asba(iplayerTypes
tPlayer
p176
(dp177
g8
S'Stan Wawrinka'
p178
sg10
I5
sg11
I1
sg12
S'm'
sg13
I150
sg14
(lp179
(g16
I70
tp180
a(g19
g37
tp181
a(g21
I40
tp182
a(g24
g40
tp183
a(g26
I40
tp184
a(g29
g104
tp185
asbasba(iplayerTypes
fPlayer
p186
(dp187
g4
(lp188
(iplayerTypes
tPlayer
p189
(dp190
g8
S'Grigor Dimitrov'
p191
sg10
I4
sg11
I1
sg12
S'm'
sg13
I62
sg14
(lp192
(g16
g17
tp193
a(g19
I62
tp194
a(g21
g22
tp195
a(g24
S'(54)'
tp196
a(g26
g67
tp197
a(g29
S'(35)'
tp198
asba(iplayerTypes
tPlayer
p199
(dp200
g8
S'Rafael Nadal'
p201
sg10
I3
sg11
I1
sg12
S'm'
sg13
I88
sg14
(lp202
(g16
g17
tp203
a(g19
I38
tp204
a(g21
g22
tp205
a(g24
I50
tp206
a(g26
g67
tp207
a(g29
S'(40)'
tp208
asbasg55
I771
sg8
S'Santay'
p209
sg57
(lp210
(iplayerTypes
tPlayer
p211
(dp212
g8
S'Milos Raonic'
p213
sg10
I1
sg11
I1
sg12
S'm'
sg13
I147
sg14
(lp214
(g16
g17
tp215
a(g19
I39
tp216
a(g21
g22
tp217
a(g24
I54
tp218
a(g26
g67
tp219
a(g29
I54
tp220
asba(iplayerTypes
tPlayer
p221
(dp222
g8
S'Roger Federer'
p223
sg10
I2
sg11
I1
sg12
S'm'
sg13
I174
sg14
(lp224
(g16
I56
tp225
a(g19
g37
tp226
a(g21
I55
tp227
a(g24
g40
tp228
a(g26
I63
tp229
a(g29
g104
tp230
asba(iplayerTypes
tPlayer
p231
(dp232
g8
S'Dominic Thiem'
p233
sg10
I3
sg11
I1
sg12
S'm'
sg13
I45
sg14
(lp234
(g16
g17
tp235
a(g19
S'(39)'
tp236
a(g21
g22
tp237
a(g24
S'(43)'
tp238
a(g26
g67
tp239
a(g29
I45
tp240
asba(iplayerTypes
tPlayer
p241
(dp242
g8
S'Angelique Kerber'
p243
sg10
I4
sg11
I1
sg12
S'f'
sg13
I112
sg14
(lp244
(g16
S'(64)'
tp245
a(g19
g37
tp246
a(g21
I51
tp247
a(g24
g40
tp248
a(g26
I61
tp249
a(g29
g104
tp250
asba(iplayerTypes
tPlayer
p251
(dp252
g8
S'Kei Nishikori'
p253
sg10
I5
sg11
I1
sg12
S'm'
sg13
I143
sg14
(lp254
(g16
I65
tp255
a(g19
g37
tp256
a(g21
I56
tp257
a(g24
g40
tp258
a(g26
I22
tp259
a(g29
g104
tp260
asbasba(iplayerTypes
fPlayer
p261
(dp262
g4
(lp263
(iplayerTypes
tPlayer
p264
(dp265
g8
S'Nick Kyrgios'
p266
sg10
I1
sg11
I0
sg12
S'm'
sg13
I15
sg14
(lp267
(g16
I15
tp268
a(g19
g37
tp269
a(g21
S'(60)'
tp270
a(g24
g51
tp271
a(g26
g27
tp272
a(g29
g30
tp273
asba(iplayerTypes
tPlayer
p274
(dp275
g8
S'John Isner'
p276
sg10
I2
sg11
I0
sg12
S'm'
sg13
I229
sg14
(lp277
(g16
I98
tp278
a(g19
g37
tp279
a(g21
I131
tp280
a(g24
g51
tp281
a(g26
g27
tp282
a(g29
g30
tp283
asba(iplayerTypes
tPlayer
p284
(dp285
g8
S'Novak Djokovic'
p286
sg10
I5
sg11
I0
sg12
S'm'
sg13
I107
sg14
(lp287
(g16
g17
tp288
a(g19
I39
tp289
a(g21
g22
tp290
a(g24
I68
tp291
a(g26
g27
tp292
a(g29
g30
tp293
asbasg55
I770
sg8
S'Ben'
p294
sg57
(lp295
(iplayerTypes
tPlayer
p296
(dp297
g8
S'Roger Federer'
p298
sg10
I1
sg11
I1
sg12
S'm'
sg13
I63
sg14
(lp299
(g16
S'(54)'
tp300
a(g19
g37
tp301
a(g21
I45
tp302
a(g24
g40
tp303
a(g26
I18
tp304
a(g29
g104
tp305
asba(iplayerTypes
tPlayer
p306
(dp307
g8
S'Andy Murray'
p308
sg10
I2
sg11
I1
sg12
S'm'
sg13
I58
sg14
(lp309
(g16
S'(23)'
tp310
a(g19
g37
tp311
a(g21
S'(36)'
tp312
a(g24
g40
tp313
a(g26
I58
tp314
a(g29
g104
tp315
asba(iplayerTypes
tPlayer
p316
(dp317
g8
S'Angelique Kerber'
p318
sg10
I3
sg11
I1
sg12
S'f'
sg13
I143
sg14
(lp319
(g16
I43
tp320
a(g19
g37
tp321
a(g21
I47
tp322
a(g24
g40
tp323
a(g26
I53
tp324
a(g29
g104
tp325
asba(iplayerTypes
tPlayer
p326
(dp327
g8
S'Stan Wawrinka'
p328
sg10
I4
sg11
I1
sg12
S'm'
sg13
I155
sg14
(lp329
(g16
I47
tp330
a(g19
g37
tp331
a(g21
I56
tp332
a(g24
g40
tp333
a(g26
I52
tp334
a(g29
g104
tp335
asba(iplayerTypes
tPlayer
p336
(dp337
g8
S'Grigor Dimitrov'
p338
sg10
I5
sg11
I1
sg12
S'm'
sg13
I0
sg14
(lp339
(S'0/0/0'
S'(-)'
tp340
ag340
ag340
ag340
ag340
ag340
asbasba(iplayerTypes
fPlayer
p341
(dp342
g4
(lp343
(iplayerTypes
tPlayer
p344
(dp345
g8
S'Gael Monfils'
p346
sg10
I2
sg11
I1
sg12
S'm'
sg13
I0
sg14
(lp347
(g16
g17
tp348
a(g19
S'(47)'
tp349
a(g21
g22
tp350
a(g24
S'(42)'
tp351
a(g26
g67
tp352
a(g29
S'(25)'
tp353
asba(iplayerTypes
tPlayer
p354
(dp355
g8
S'John Isner'
p356
sg10
I1
sg11
I0
sg12
S'm'
sg13
I168
sg14
(lp357
(g16
I81
tp358
a(g19
g37
tp359
a(g21
I87
tp360
a(g24
g51
tp361
a(g26
g27
tp362
a(g29
g30
tp363
asba(iplayerTypes
tPlayer
p364
(dp365
g8
S'Novak Djokovic'
p366
sg10
I3
sg11
I0
sg12
S'm'
sg13
I88
sg14
(lp367
(g16
g17
tp368
a(g19
I50
tp369
a(g21
g22
tp370
a(g24
I38
tp371
a(g26
g27
tp372
a(g29
g30
tp373
asbasg55
I714
sg8
S'Jack'
p374
sg57
(lp375
(iplayerTypes
tPlayer
p376
(dp377
g8
S'Dominic Thiem'
p378
sg10
I1
sg11
I1
sg12
S'm'
sg13
I21
sg14
(lp379
(g16
g17
tp380
a(g19
S'(47)'
tp381
a(g21
g22
tp382
a(g24
S'(24)'
tp383
a(g26
g67
tp384
a(g29
I21
tp385
asba(iplayerTypes
tPlayer
p386
(dp387
g8
S'Stan Wawrinka'
p388
sg10
I2
sg11
I1
sg12
S'm'
sg13
I188
sg14
(lp389
(g16
I77
tp390
a(g19
g37
tp391
a(g21
I67
tp392
a(g24
g40
tp393
a(g26
I44
tp394
a(g29
g104
tp395
asba(iplayerTypes
tPlayer
p396
(dp397
g8
S'Kei Nishikori'
p398
sg10
I3
sg11
I1
sg12
S'm'
sg13
I0
sg14
(lp399
(S'0/0/0'
S'(-)'
tp400
ag400
ag400
ag400
ag400
ag400
asba(iplayerTypes
tPlayer
p401
(dp402
g8
S'Andy Murray'
p403
sg10
I4
sg11
I1
sg12
S'm'
sg13
I161
sg14
(lp404
(g16
I43
tp405
a(g19
g37
tp406
a(g21
I68
tp407
a(g24
g40
tp408
a(g26
I50
tp409
a(g29
g104
tp410
asba(iplayerTypes
tPlayer
p411
(dp412
g8
S'Roger Federer'
p413
sg10
I5
sg11
I1
sg12
S'm'
sg13
I88
sg14
(lp414
(g16
I31
tp415
a(g19
g37
tp416
a(g21
I37
tp417
a(g24
g40
tp418
a(g26
I20
tp419
a(g29
g104
tp420
asbasba.