(lp1
(iplayerTypes
fPlayer
p2
(dp3
S'bench'
p4
(lp5
(iplayerTypes
tPlayer
p6
(dp7
S'name'
p8
S'Novak Djokovic'
p9
sS'attribute'
p10
I2
sS'alive'
p11
I0
sS'sex'
p12
S'm'
sS'points'
p13
I0
sS'history'
p14
(lp15
(S'1/16/2017'
p16
S'DNP'
p17
tp18
a(S'1/17/2017'
p19
S'(14)'
tp20
a(S'1/18/2017'
p21
S'DNP'
p22
tp23
a(S'1/19/2017'
p24
S'(64)'
tp25
a(S'1/20/2017'
p26
S'OUT'
p27
tp28
a(S'1/21/2017'
p29
S'OUT'
p30
tp31
a(S'1/22/2017'
p32
S'OUT'
p33
tp34
a(S'1/23/2017'
p35
S'OUT'
p36
tp37
a(S'1/24/2017'
p38
S'OUT'
p39
tp40
a(S'1/25/2017'
p41
S'OUT'
p42
tp43
asba(iplayerTypes
tPlayer
p44
(dp45
g8
S'Tomas Berdych'
p46
sg10
I2
sg11
I0
sg12
S'm'
sg13
I38
sg14
(lp47
(g16
S'(10)'
tp48
a(g19
S'DNP'
p49
tp50
a(g21
S'(43)'
tp51
a(g24
S'DNP'
p52
tp53
a(g26
I38
tp54
a(g29
g30
tp55
a(g32
g33
tp56
a(g35
g36
tp57
a(g38
g39
tp58
a(g41
g42
tp59
asba(iplayerTypes
tPlayer
p60
(dp61
g8
S'Marin Cilic'
p62
sg10
I2
sg11
I0
sg12
S'm'
sg13
I146
sg14
(lp63
(g16
I105
tp64
a(g19
g49
tp65
a(g21
I41
tp66
a(g24
S'OUT'
p67
tp68
a(g26
g27
tp69
a(g29
g30
tp70
a(g32
g33
tp71
a(g35
g36
tp72
a(g38
g39
tp73
a(g41
g42
tp74
asbasS'total'
p75
I1241
sg8
S'Steve'
p76
sS'team'
p77
(lp78
(iplayerTypes
tPlayer
p79
(dp80
g8
S'Ivo Karlovic'
p81
sg10
I1
sg11
I0
sg12
S'm'
sg13
I291
sg14
(lp82
(g16
g17
tp83
a(g19
I189
tp84
a(g21
g22
tp85
a(g24
I36
tp86
a(g26
S'DNP'
p87
tp88
a(g29
I66
tp89
a(g32
g33
tp90
a(g35
g36
tp91
a(g38
g39
tp92
a(g41
g42
tp93
asba(iplayerTypes
tPlayer
p94
(dp95
g8
S'Jo-Wilfried Tsonga'
p96
sg10
I2
sg11
I0
sg12
S'm'
sg13
I104
sg14
(lp97
(S'0/0/0'
S'(-)'
tp98
ag98
ag98
ag98
ag98
ag98
a(g32
I89
tp99
a(g35
S'DNP'
p100
tp101
a(g38
I15
tp102
a(g41
g42
tp103
asba(iplayerTypes
tPlayer
p104
(dp105
g8
S'Serena Williams'
p106
sg10
I3
sg11
I1
sg12
S'f'
sg13
I237
sg14
(lp107
(g16
g17
tp108
a(g19
I46
tp109
a(g21
g22
tp110
a(g24
I38
tp111
a(g26
g87
tp112
a(g29
I54
tp113
a(g32
S'DNP'
p114
tp115
a(g35
I51
tp116
a(g38
S'DNP'
p117
tp118
a(g41
I48
tp119
asba(iplayerTypes
tPlayer
p120
(dp121
g8
S'Milos Raonic'
p122
sg10
I4
sg11
I0
sg12
S'm'
sg13
I286
sg14
(lp123
(g16
g17
tp124
a(g19
I62
tp125
a(g21
g22
tp126
a(g24
I59
tp127
a(g26
g87
tp128
a(g29
I61
tp129
a(g32
g114
tp130
a(g35
I48
tp131
a(g38
g117
tp132
a(g41
I56
tp133
asba(iplayerTypes
tPlayer
p134
(dp135
g8
S'Andy Murray'
p136
sg10
I5
sg11
I0
sg12
S'm'
sg13
I139
sg14
(lp137
(g16
I31
tp138
a(g19
g49
tp139
a(g21
I30
tp140
a(g24
g52
tp141
a(g26
I32
tp142
a(g29
S'DNP'
p143
tp144
a(g32
I46
tp145
a(g35
g36
tp146
a(g38
g39
tp147
a(g41
g42
tp148
asbasba(iplayerTypes
fPlayer
p149
(dp150
g4
(lp151
(iplayerTypes
tPlayer
p152
(dp153
g8
S'Rafael Nadal'
p154
sg10
I3
sg11
I1
sg12
S'm'
sg13
I88
sg14
(lp155
(g16
g17
tp156
a(g19
I38
tp157
a(g21
g22
tp158
a(g24
I50
tp159
a(g26
g87
tp160
a(g29
S'(40)'
tp161
a(g32
g114
tp162
a(g35
S'(43)'
tp163
a(g38
g117
tp164
a(g41
S'(36)'
tp165
asba(iplayerTypes
tPlayer
p166
(dp167
g8
S'Grigor Dimitrov'
p168
sg10
I4
sg11
I1
sg12
S'm'
sg13
I62
sg14
(lp169
(g16
g17
tp170
a(g19
I62
tp171
a(g21
g22
tp172
a(g24
S'(54)'
tp173
a(g26
g87
tp174
a(g29
S'(35)'
tp175
a(g32
g114
tp176
a(g35
S'(62)'
tp177
a(g38
g117
tp178
a(g41
S'(43)'
tp179
asbasg75
I1236
sg8
S'Santay'
p180
sg77
(lp181
(iplayerTypes
tPlayer
p182
(dp183
g8
S'Milos Raonic'
p184
sg10
I1
sg11
I0
sg12
S'm'
sg13
I255
sg14
(lp185
(g16
g17
tp186
a(g19
I39
tp187
a(g21
g22
tp188
a(g24
I54
tp189
a(g26
g87
tp190
a(g29
I54
tp191
a(g32
g114
tp192
a(g35
I72
tp193
a(g38
g117
tp194
a(g41
I36
tp195
asba(iplayerTypes
tPlayer
p196
(dp197
g8
S'Roger Federer'
p198
sg10
I2
sg11
I1
sg12
S'm'
sg13
I410
sg14
(lp199
(g16
I56
tp200
a(g19
g49
tp201
a(g21
I55
tp202
a(g24
g52
tp203
a(g26
I63
tp204
a(g29
g143
tp205
a(g32
I119
tp206
a(g35
g100
tp207
a(g38
I117
tp208
a(g41
S'DNP'
p209
tp210
asba(iplayerTypes
tPlayer
p211
(dp212
g8
S'Dominic Thiem'
p213
sg10
I3
sg11
I0
sg12
S'm'
sg13
I78
sg14
(lp214
(g16
g17
tp215
a(g19
S'(39)'
tp216
a(g21
g22
tp217
a(g24
S'(43)'
tp218
a(g26
g87
tp219
a(g29
I45
tp220
a(g32
g114
tp221
a(g35
I33
tp222
a(g38
g39
tp223
a(g41
g42
tp224
asba(iplayerTypes
tPlayer
p225
(dp226
g8
S'Angelique Kerber'
p227
sg10
I4
sg11
I0
sg12
S'f'
sg13
I151
sg14
(lp228
(g16
S'(64)'
tp229
a(g19
g49
tp230
a(g21
I51
tp231
a(g24
g52
tp232
a(g26
I61
tp233
a(g29
g143
tp234
a(g32
I39
tp235
a(g35
g36
tp236
a(g38
g39
tp237
a(g41
g42
tp238
asba(iplayerTypes
tPlayer
p239
(dp240
g8
S'Kei Nishikori'
p241
sg10
I5
sg11
I0
sg12
S'm'
sg13
I192
sg14
(lp242
(g16
I65
tp243
a(g19
g49
tp244
a(g21
I56
tp245
a(g24
g52
tp246
a(g26
I22
tp247
a(g29
g143
tp248
a(g32
I49
tp249
a(g35
g36
tp250
a(g38
g39
tp251
a(g41
g42
tp252
asbasba(iplayerTypes
fPlayer
p253
(dp254
g4
(lp255
(iplayerTypes
tPlayer
p256
(dp257
g8
S'Nick Kyrgios'
p258
sg10
I1
sg11
I0
sg12
S'm'
sg13
I15
sg14
(lp259
(g16
I15
tp260
a(g19
g49
tp261
a(g21
S'(60)'
tp262
a(g24
g67
tp263
a(g26
g27
tp264
a(g29
g30
tp265
a(g32
g33
tp266
a(g35
g36
tp267
a(g38
g39
tp268
a(g41
g42
tp269
asba(iplayerTypes
tPlayer
p270
(dp271
g8
S'John Isner'
p272
sg10
I2
sg11
I0
sg12
S'm'
sg13
I229
sg14
(lp273
(g16
I98
tp274
a(g19
g49
tp275
a(g21
I131
tp276
a(g24
g67
tp277
a(g26
g27
tp278
a(g29
g30
tp279
a(g32
g33
tp280
a(g35
g36
tp281
a(g38
g39
tp282
a(g41
g42
tp283
asba(iplayerTypes
tPlayer
p284
(dp285
g8
S'Novak Djokovic'
p286
sg10
I5
sg11
I0
sg12
S'm'
sg13
I107
sg14
(lp287
(g16
g17
tp288
a(g19
I39
tp289
a(g21
g22
tp290
a(g24
I68
tp291
a(g26
g27
tp292
a(g29
g30
tp293
a(g32
g33
tp294
a(g35
g36
tp295
a(g38
g39
tp296
a(g41
g42
tp297
asbasg75
I1231
sg8
S'Ben'
p298
sg77
(lp299
(iplayerTypes
tPlayer
p300
(dp301
g8
S'Roger Federer'
p302
sg10
I1
sg11
I1
sg12
S'm'
sg13
I141
sg14
(lp303
(g16
S'(54)'
tp304
a(g19
g49
tp305
a(g21
I45
tp306
a(g24
g52
tp307
a(g26
I18
tp308
a(g29
g143
tp309
a(g32
I54
tp310
a(g35
g100
tp311
a(g38
I24
tp312
a(g41
g209
tp313
asba(iplayerTypes
tPlayer
p314
(dp315
g8
S'Andy Murray'
p316
sg10
I2
sg11
I0
sg12
S'm'
sg13
I172
sg14
(lp317
(g16
S'(23)'
tp318
a(g19
g49
tp319
a(g21
S'(36)'
tp320
a(g24
g52
tp321
a(g26
I58
tp322
a(g29
g143
tp323
a(g32
I114
tp324
a(g35
g36
tp325
a(g38
g39
tp326
a(g41
g42
tp327
asba(iplayerTypes
tPlayer
p328
(dp329
g8
S'Angelique Kerber'
p330
sg10
I3
sg11
I0
sg12
S'f'
sg13
I177
sg14
(lp331
(g16
I43
tp332
a(g19
g49
tp333
a(g21
I47
tp334
a(g24
g52
tp335
a(g26
I53
tp336
a(g29
g143
tp337
a(g32
I34
tp338
a(g35
g36
tp339
a(g38
g39
tp340
a(g41
g42
tp341
asba(iplayerTypes
tPlayer
p342
(dp343
g8
S'Stan Wawrinka'
p344
sg10
I4
sg11
I1
sg12
S'm'
sg13
I287
sg14
(lp345
(g16
I47
tp346
a(g19
g49
tp347
a(g21
I56
tp348
a(g24
g52
tp349
a(g26
I52
tp350
a(g29
g143
tp351
a(g32
I67
tp352
a(g35
g100
tp353
a(g38
I65
tp354
a(g41
g209
tp355
asba(iplayerTypes
tPlayer
p356
(dp357
g8
S'Grigor Dimitrov'
p358
sg10
I5
sg11
I1
sg12
S'm'
sg13
I103
sg14
(lp359
(S'0/0/0'
S'(-)'
tp360
ag360
ag360
ag360
ag360
ag360
a(g32
g114
tp361
a(g35
I39
tp362
a(g38
g117
tp363
a(g41
I64
tp364
asbasba(iplayerTypes
fPlayer
p365
(dp366
g4
(lp367
(iplayerTypes
tPlayer
p368
(dp369
g8
S'Rafael Nadal'
p370
sg10
I5
sg11
I1
sg12
S'm'
sg13
I0
sg14
(lp371
(g16
g17
tp372
a(g19
S'(15)'
tp373
a(g21
g22
tp374
a(g24
S'(47)'
tp375
a(g26
g87
tp376
a(g29
S'(44)'
tp377
a(g32
g114
tp378
a(g35
S'(36)'
tp379
a(g38
g117
tp380
a(g41
S'(30)'
tp381
asba(iplayerTypes
tPlayer
p382
(dp383
g8
S'Marin Cilic'
p384
sg10
I1
sg11
I0
sg12
S'm'
sg13
I84
sg14
(lp385
(g16
I54
tp386
a(g19
g49
tp387
a(g21
I30
tp388
a(g24
g67
tp389
a(g26
g27
tp390
a(g29
g30
tp391
a(g32
g33
tp392
a(g35
g36
tp393
a(g38
g39
tp394
a(g41
g42
tp395
asba(iplayerTypes
tPlayer
p396
(dp397
g8
S'Novak Djokovic'
p398
sg10
I4
sg11
I0
sg12
S'm'
sg13
I105
sg14
(lp399
(g16
g17
tp400
a(g19
I50
tp401
a(g21
g22
tp402
a(g24
I55
tp403
a(g26
g27
tp404
a(g29
g30
tp405
a(g32
g33
tp406
a(g35
g36
tp407
a(g38
g39
tp408
a(g41
g42
tp409
asbasg75
I1107
sg8
S'Geoff'
p410
sg77
(lp411
(iplayerTypes
tPlayer
p412
(dp413
g8
S'Jo-Wilfried Tsonga'
p414
sg10
I1
sg11
I0
sg12
S'm'
sg13
I111
sg14
(lp415
(g16
S'(45)'
tp416
a(g19
g49
tp417
a(g21
S'(39)'
tp418
a(g24
g52
tp419
a(g26
I54
tp420
a(g29
g143
tp421
a(g32
I45
tp422
a(g35
g100
tp423
a(g38
I12
tp424
a(g41
g42
tp425
asba(iplayerTypes
tPlayer
p426
(dp427
g8
S'Milos Raonic'
p428
sg10
I2
sg11
I0
sg12
S'm'
sg13
I381
sg14
(lp429
(g16
g17
tp430
a(g19
I67
tp431
a(g21
g22
tp432
a(g24
I97
tp433
a(g26
g87
tp434
a(g29
I76
tp435
a(g32
g114
tp436
a(g35
I95
tp437
a(g38
g117
tp438
a(g41
I46
tp439
asba(iplayerTypes
tPlayer
p440
(dp441
g8
S'Andy Murray'
p442
sg10
I3
sg11
I0
sg12
S'm'
sg13
I180
sg14
(lp443
(g16
I45
tp444
a(g19
g49
tp445
a(g21
I49
tp446
a(g24
g52
tp447
a(g26
I45
tp448
a(g29
g143
tp449
a(g32
I41
tp450
a(g35
g36
tp451
a(g38
g39
tp452
a(g41
g42
tp453
asba(iplayerTypes
tPlayer
p454
(dp455
g8
S'Dominic Thiem'
p456
sg10
I4
sg11
I0
sg12
S'm'
sg13
I45
sg14
(lp457
(S'0/0/0'
S'(-)'
tp458
ag458
ag458
ag458
ag458
ag458
a(g32
g114
tp459
a(g35
I45
tp460
a(g38
g39
tp461
a(g41
g42
tp462
asba(iplayerTypes
tPlayer
p463
(dp464
g8
S'Stan Wawrinka'
p465
sg10
I5
sg11
I1
sg12
S'm'
sg13
I201
sg14
(lp466
(g16
I70
tp467
a(g19
g49
tp468
a(g21
I40
tp469
a(g24
g52
tp470
a(g26
I40
tp471
a(g29
g143
tp472
a(g32
I14
tp473
a(g35
g100
tp474
a(g38
I37
tp475
a(g41
g209
tp476
asbasba(iplayerTypes
fPlayer
p477
(dp478
g4
(lp479
(iplayerTypes
tPlayer
p480
(dp481
g8
S'Gael Monfils'
p482
sg10
I2
sg11
I0
sg12
S'm'
sg13
I0
sg14
(lp483
(g16
g17
tp484
a(g19
S'(47)'
tp485
a(g21
g22
tp486
a(g24
S'(42)'
tp487
a(g26
g87
tp488
a(g29
S'(25)'
tp489
a(g32
g114
tp490
a(g35
S'(40)'
tp491
a(g38
g39
tp492
a(g41
g42
tp493
asba(iplayerTypes
tPlayer
p494
(dp495
g8
S'John Isner'
p496
sg10
I1
sg11
I0
sg12
S'm'
sg13
I168
sg14
(lp497
(g16
I81
tp498
a(g19
g49
tp499
a(g21
I87
tp500
a(g24
g67
tp501
a(g26
g27
tp502
a(g29
g30
tp503
a(g32
g33
tp504
a(g35
g36
tp505
a(g38
g39
tp506
a(g41
g42
tp507
asba(iplayerTypes
tPlayer
p508
(dp509
g8
S'Novak Djokovic'
p510
sg10
I3
sg11
I0
sg12
S'm'
sg13
I88
sg14
(lp511
(g16
g17
tp512
a(g19
I50
tp513
a(g21
g22
tp514
a(g24
I38
tp515
a(g26
g27
tp516
a(g29
g30
tp517
a(g32
g33
tp518
a(g35
g36
tp519
a(g38
g39
tp520
a(g41
g42
tp521
asbasg75
I1016
sg8
S'Jack'
p522
sg77
(lp523
(iplayerTypes
tPlayer
p524
(dp525
g8
S'Dominic Thiem'
p526
sg10
I1
sg11
I0
sg12
S'm'
sg13
I45
sg14
(lp527
(g16
g17
tp528
a(g19
S'(47)'
tp529
a(g21
g22
tp530
a(g24
S'(24)'
tp531
a(g26
g87
tp532
a(g29
I21
tp533
a(g32
g114
tp534
a(g35
I24
tp535
a(g38
g39
tp536
a(g41
g42
tp537
asba(iplayerTypes
tPlayer
p538
(dp539
g8
S'Stan Wawrinka'
p540
sg10
I2
sg11
I1
sg12
S'm'
sg13
I307
sg14
(lp541
(g16
I77
tp542
a(g19
g49
tp543
a(g21
I67
tp544
a(g24
g52
tp545
a(g26
I44
tp546
a(g29
g143
tp547
a(g32
I65
tp548
a(g35
g100
tp549
a(g38
I54
tp550
a(g41
g209
tp551
asba(iplayerTypes
tPlayer
p552
(dp553
g8
S'Kei Nishikori'
p554
sg10
I3
sg11
I0
sg12
S'm'
sg13
I30
sg14
(lp555
(S'0/0/0'
S'(-)'
tp556
ag556
ag556
ag556
ag556
ag556
a(g32
I30
tp557
a(g35
g36
tp558
a(g38
g39
tp559
a(g41
g42
tp560
asba(iplayerTypes
tPlayer
p561
(dp562
g8
S'Andy Murray'
p563
sg10
I4
sg11
I0
sg12
S'm'
sg13
I197
sg14
(lp564
(g16
I43
tp565
a(g19
g49
tp566
a(g21
I68
tp567
a(g24
g52
tp568
a(g26
I50
tp569
a(g29
g143
tp570
a(g32
I36
tp571
a(g35
g36
tp572
a(g38
g39
tp573
a(g41
g42
tp574
asba(iplayerTypes
tPlayer
p575
(dp576
g8
S'Roger Federer'
p577
sg10
I5
sg11
I1
sg12
S'm'
sg13
I181
sg14
(lp578
(g16
I31
tp579
a(g19
g49
tp580
a(g21
I37
tp581
a(g24
g52
tp582
a(g26
I20
tp583
a(g29
g143
tp584
a(g32
I61
tp585
a(g35
g100
tp586
a(g38
I32
tp587
a(g41
g209
tp588
asbasba.