(lp1
(iplayerTypes
fPlayer
p2
(dp3
S'bench'
p4
(lp5
(iplayerTypes
tPlayer
p6
(dp7
S'name'
p8
S'Grigor Dimitrov'
p9
sS'attribute'
p10
I3
sS'alive'
p11
I1
sS'sex'
p12
S'm'
sS'points'
p13
I27
sS'history'
p14
(lp15
(S'1/2/2017'
p16
I27
tp17
asba(iplayerTypes
tPlayer
p18
(dp19
g8
S'Stanislas Wawrinka'
p20
sg10
I2
sg11
I1
sg12
S'm'
sg13
I27
sg14
(lp21
(g16
S'-'
tp22
a(g16
I27
tp23
asbasS'total'
p24
I102
sg8
S'Ben'
p25
sS'team'
p26
(lp27
(iplayerTypes
tPlayer
p28
(dp29
g8
S'Bernard Tomic'
p30
sg10
I1
sg11
I0
sg12
S'm'
sg13
I-9
sg14
(lp31
(g16
I-9
tp32
asba(iplayerTypes
tPlayer
p33
(dp34
g8
S'Nicolas Mahut'
p35
sg10
I2
sg11
I1
sg12
S'm'
sg13
I18
sg14
(lp36
(g16
I18
tp37
asba(iplayerTypes
tPlayer
p38
(dp39
g8
S'Stephane Robert'
p40
sg10
I3
sg11
I0
sg12
S'm'
sg13
I31
sg14
(lp41
(g16
I31
tp42
asba(iplayerTypes
tPlayer
p43
(dp44
g8
S'Milos Raonic'
p45
sg10
I4
sg11
I1
sg12
S'm'
sg13
I31
sg14
(lp46
(g16
S'-'
tp47
a(g16
I31
tp48
asba(iplayerTypes
tPlayer
p49
(dp50
g8
S'Rafael Nadal'
p51
sg10
I5
sg11
I1
sg12
S'm'
sg13
I31
sg14
(lp52
(g16
S'-'
tp53
a(g16
I31
tp54
asbasba.