(lp1
(iplayerTypes
fPlayer
p2
(dp3
S'bench'
p4
(lp5
(iplayerTypes
tPlayer
p6
(dp7
S'name'
p8
S'Grigor Dimitrov'
p9
sS'attribute'
p10
I3
sS'alive'
p11
I1
sS'sex'
p12
S'm'
sS'points'
p13
I27
sS'history'
p14
(lp15
(S'1/2/2017'
p16
I27
tp17
asba(iplayerTypes
tPlayer
p18
(dp19
g8
S'Stanislas Wawrinka'
p20
sg10
I2
sg11
I1
sg12
S'm'
sg13
I0
sg14
(lp21
(g16
S'-'
tp22
asbasS'total'
p23
I61
sg8
S'Ben'
p24
sS'team'
p25
(lp26
(iplayerTypes
tPlayer
p27
(dp28
g8
S'Bernard Tomic'
p29
sg10
I1
sg11
I0
sg12
S'm'
sg13
I-9
sg14
(lp30
(g16
I-9
tp31
asba(iplayerTypes
tPlayer
p32
(dp33
g8
S'Nicolas Mahut'
p34
sg10
I2
sg11
I1
sg12
S'm'
sg13
I39
sg14
(lp35
(g16
I39
tp36
asba(iplayerTypes
tPlayer
p37
(dp38
g8
S'Stephane Robert'
p39
sg10
I3
sg11
I0
sg12
S'm'
sg13
I31
sg14
(lp40
(g16
I31
tp41
asba(iplayerTypes
tPlayer
p42
(dp43
g8
S'Milos Raonic'
p44
sg10
I4
sg11
I1
sg12
S'm'
sg13
I0
sg14
(lp45
(g16
S'-'
tp46
asba(iplayerTypes
tPlayer
p47
(dp48
g8
S'Rafael Nadal'
p49
sg10
I5
sg11
I1
sg12
S'm'
sg13
I0
sg14
(lp50
(g16
S'-'
tp51
asbasba(iplayerTypes
fPlayer
p52
(dp53
g4
(lp54
(iplayerTypes
tPlayer
p55
(dp56
g8
S'Stanislas Wawrinka'
p57
sg10
I4
sg11
I1
sg12
S'm'
sg13
I0
sg14
(lp58
(g16
S'-'
tp59
asba(iplayerTypes
tPlayer
p60
(dp61
g8
S'Grigor Dimitrov'
p62
sg10
I2
sg11
I1
sg12
S'm'
sg13
I19
sg14
(lp63
(g16
I19
tp64
asbasg23
I100
sg8
S'Santay'
p65
sg25
(lp66
(iplayerTypes
tPlayer
p67
(dp68
g8
S'Milos Raonic'
p69
sg10
I1
sg11
I1
sg12
S'm'
sg13
I0
sg14
(lp70
(g16
S'-'
tp71
asba(iplayerTypes
tPlayer
p72
(dp73
g8
S'Sam Querrey'
p74
sg10
I2
sg11
I1
sg12
S'm'
sg13
I0
sg14
(lp75
(g16
S'-'
tp76
asba(iplayerTypes
tPlayer
p77
(dp78
g8
S'David Ferrer'
p79
sg10
I3
sg11
I1
sg12
S'm'
sg13
I45
sg14
(lp80
(g16
I45
tp81
asba(iplayerTypes
tPlayer
p82
(dp83
g8
S'Nicolas Mahut'
p84
sg10
I4
sg11
I1
sg12
S'm'
sg13
I55
sg14
(lp85
(g16
I55
tp86
asba(iplayerTypes
tPlayer
p87
(dp88
g8
S'Kei Nishikori'
p89
sg10
I5
sg11
I1
sg12
S'm'
sg13
I0
sg14
(lp90
(g16
S'-'
tp91
asbasba.