(lp1
(iplayerTypes
fPlayer
p2
(dp3
S'bench'
p4
(lp5
(iplayerTypes
tPlayer
p6
(dp7
S'name'
p8
S'Rafael Nadal'
p9
sS'attribute'
p10
I3
sS'alive'
p11
I1
sS'sex'
p12
S'm'
sS'points'
p13
I88
sS'history'
p14
(lp15
(S'1/16/2017'
p16
S'DNP'
p17
tp18
a(S'1/17/2017'
p19
I38
tp20
a(S'1/18/2017'
p21
S'DNP'
p22
tp23
a(S'1/19/2017'
p24
I50
tp25
a(S'1/20/2017'
p26
S'DNP'
p27
tp28
a(S'1/21/2017'
p29
S'(40)'
tp30
a(S'1/22/2017'
p31
S'DNP'
p32
tp33
a(S'1/23/2017'
p34
S'(43)'
tp35
a(S'1/24/2017'
p36
S'DNP'
p37
tp38
asba(iplayerTypes
tPlayer
p39
(dp40
g8
S'Grigor Dimitrov'
p41
sg10
I4
sg11
I1
sg12
S'm'
sg13
I62
sg14
(lp42
(g16
g17
tp43
a(g19
I62
tp44
a(g21
g22
tp45
a(g24
S'(54)'
tp46
a(g26
g27
tp47
a(g29
S'(35)'
tp48
a(g31
g32
tp49
a(g34
S'(62)'
tp50
a(g36
g37
tp51
asbasS'total'
p52
I1200
sg8
S'Santay'
p53
sS'team'
p54
(lp55
(iplayerTypes
tPlayer
p56
(dp57
g8
S'Milos Raonic'
p58
sg10
I1
sg11
I1
sg12
S'm'
sg13
I219
sg14
(lp59
(g16
g17
tp60
a(g19
I39
tp61
a(g21
g22
tp62
a(g24
I54
tp63
a(g26
g27
tp64
a(g29
I54
tp65
a(g31
g32
tp66
a(g34
I72
tp67
a(g36
g37
tp68
asba(iplayerTypes
tPlayer
p69
(dp70
g8
S'Roger Federer'
p71
sg10
I2
sg11
I1
sg12
S'm'
sg13
I410
sg14
(lp72
(g16
I56
tp73
a(g19
S'DNP'
p74
tp75
a(g21
I55
tp76
a(g24
S'DNP'
p77
tp78
a(g26
I63
tp79
a(g29
S'DNP'
p80
tp81
a(g31
I119
tp82
a(g34
S'DNP'
p83
tp84
a(g36
I117
tp85
asba(iplayerTypes
tPlayer
p86
(dp87
g8
S'Dominic Thiem'
p88
sg10
I3
sg11
I0
sg12
S'm'
sg13
I78
sg14
(lp89
(g16
g17
tp90
a(g19
S'(39)'
tp91
a(g21
g22
tp92
a(g24
S'(43)'
tp93
a(g26
g27
tp94
a(g29
I45
tp95
a(g31
g32
tp96
a(g34
I33
tp97
a(g36
S'OUT'
p98
tp99
asba(iplayerTypes
tPlayer
p100
(dp101
g8
S'Angelique Kerber'
p102
sg10
I4
sg11
I0
sg12
S'f'
sg13
I151
sg14
(lp103
(g16
S'(64)'
tp104
a(g19
g74
tp105
a(g21
I51
tp106
a(g24
g77
tp107
a(g26
I61
tp108
a(g29
g80
tp109
a(g31
I39
tp110
a(g34
S'OUT'
p111
tp112
a(g36
g98
tp113
asba(iplayerTypes
tPlayer
p114
(dp115
g8
S'Kei Nishikori'
p116
sg10
I5
sg11
I0
sg12
S'm'
sg13
I192
sg14
(lp117
(g16
I65
tp118
a(g19
g74
tp119
a(g21
I56
tp120
a(g24
g77
tp121
a(g26
I22
tp122
a(g29
g80
tp123
a(g31
I49
tp124
a(g34
g111
tp125
a(g36
g98
tp126
asbasba(iplayerTypes
fPlayer
p127
(dp128
g4
(lp129
(iplayerTypes
tPlayer
p130
(dp131
g8
S'Nick Kyrgios'
p132
sg10
I1
sg11
I0
sg12
S'm'
sg13
I15
sg14
(lp133
(g16
I15
tp134
a(g19
g74
tp135
a(g21
S'(60)'
tp136
a(g24
S'OUT'
p137
tp138
a(g26
S'OUT'
p139
tp140
a(g29
S'OUT'
p141
tp142
a(g31
S'OUT'
p143
tp144
a(g34
g111
tp145
a(g36
g98
tp146
asba(iplayerTypes
tPlayer
p147
(dp148
g8
S'John Isner'
p149
sg10
I2
sg11
I0
sg12
S'm'
sg13
I229
sg14
(lp150
(g16
I98
tp151
a(g19
g74
tp152
a(g21
I131
tp153
a(g24
g137
tp154
a(g26
g139
tp155
a(g29
g141
tp156
a(g31
g143
tp157
a(g34
g111
tp158
a(g36
g98
tp159
asba(iplayerTypes
tPlayer
p160
(dp161
g8
S'Novak Djokovic'
p162
sg10
I5
sg11
I0
sg12
S'm'
sg13
I107
sg14
(lp163
(g16
g17
tp164
a(g19
I39
tp165
a(g21
g22
tp166
a(g24
I68
tp167
a(g26
g139
tp168
a(g29
g141
tp169
a(g31
g143
tp170
a(g34
g111
tp171
a(g36
g98
tp172
asbasg52
I1167
sg8
S'Ben'
p173
sg54
(lp174
(iplayerTypes
tPlayer
p175
(dp176
g8
S'Roger Federer'
p177
sg10
I1
sg11
I1
sg12
S'm'
sg13
I141
sg14
(lp178
(g16
S'(54)'
tp179
a(g19
g74
tp180
a(g21
I45
tp181
a(g24
g77
tp182
a(g26
I18
tp183
a(g29
g80
tp184
a(g31
I54
tp185
a(g34
g83
tp186
a(g36
I24
tp187
asba(iplayerTypes
tPlayer
p188
(dp189
g8
S'Andy Murray'
p190
sg10
I2
sg11
I0
sg12
S'm'
sg13
I172
sg14
(lp191
(g16
S'(23)'
tp192
a(g19
g74
tp193
a(g21
S'(36)'
tp194
a(g24
g77
tp195
a(g26
I58
tp196
a(g29
g80
tp197
a(g31
I114
tp198
a(g34
g111
tp199
a(g36
g98
tp200
asba(iplayerTypes
tPlayer
p201
(dp202
g8
S'Angelique Kerber'
p203
sg10
I3
sg11
I0
sg12
S'f'
sg13
I177
sg14
(lp204
(g16
I43
tp205
a(g19
g74
tp206
a(g21
I47
tp207
a(g24
g77
tp208
a(g26
I53
tp209
a(g29
g80
tp210
a(g31
I34
tp211
a(g34
g111
tp212
a(g36
g98
tp213
asba(iplayerTypes
tPlayer
p214
(dp215
g8
S'Stan Wawrinka'
p216
sg10
I4
sg11
I1
sg12
S'm'
sg13
I287
sg14
(lp217
(g16
I47
tp218
a(g19
g74
tp219
a(g21
I56
tp220
a(g24
g77
tp221
a(g26
I52
tp222
a(g29
g80
tp223
a(g31
I67
tp224
a(g34
g83
tp225
a(g36
I65
tp226
asba(iplayerTypes
tPlayer
p227
(dp228
g8
S'Grigor Dimitrov'
p229
sg10
I5
sg11
I1
sg12
S'm'
sg13
I39
sg14
(lp230
(S'0/0/0'
S'(-)'
tp231
ag231
ag231
ag231
ag231
ag231
a(g31
g32
tp232
a(g34
I39
tp233
a(g36
g37
tp234
asbasba(iplayerTypes
fPlayer
p235
(dp236
g4
(lp237
(iplayerTypes
tPlayer
p238
(dp239
g8
S'Novak Djokovic'
p240
sg10
I2
sg11
I0
sg12
S'm'
sg13
I0
sg14
(lp241
(g16
g17
tp242
a(g19
S'(14)'
tp243
a(g21
g22
tp244
a(g24
S'(64)'
tp245
a(g26
g139
tp246
a(g29
g141
tp247
a(g31
g143
tp248
a(g34
g111
tp249
a(g36
g98
tp250
asba(iplayerTypes
tPlayer
p251
(dp252
g8
S'Tomas Berdych'
p253
sg10
I2
sg11
I0
sg12
S'm'
sg13
I38
sg14
(lp254
(g16
S'(10)'
tp255
a(g19
g74
tp256
a(g21
S'(43)'
tp257
a(g24
g77
tp258
a(g26
I38
tp259
a(g29
g141
tp260
a(g31
g143
tp261
a(g34
g111
tp262
a(g36
g98
tp263
asba(iplayerTypes
tPlayer
p264
(dp265
g8
S'Marin Cilic'
p266
sg10
I2
sg11
I0
sg12
S'm'
sg13
I146
sg14
(lp267
(g16
I105
tp268
a(g19
g74
tp269
a(g21
I41
tp270
a(g24
g137
tp271
a(g26
g139
tp272
a(g29
g141
tp273
a(g31
g143
tp274
a(g34
g111
tp275
a(g36
g98
tp276
asbasg52
I1137
sg8
S'Steve'
p277
sg54
(lp278
(iplayerTypes
tPlayer
p279
(dp280
g8
S'Ivo Karlovic'
p281
sg10
I1
sg11
I0
sg12
S'm'
sg13
I291
sg14
(lp282
(g16
g17
tp283
a(g19
I189
tp284
a(g21
g22
tp285
a(g24
I36
tp286
a(g26
g27
tp287
a(g29
I66
tp288
a(g31
g143
tp289
a(g34
g111
tp290
a(g36
g98
tp291
asba(iplayerTypes
tPlayer
p292
(dp293
g8
S'Jo-Wilfried Tsonga'
p294
sg10
I2
sg11
I0
sg12
S'm'
sg13
I104
sg14
(lp295
(S'0/0/0'
S'(-)'
tp296
ag296
ag296
ag296
ag296
ag296
a(g31
I89
tp297
a(g34
g83
tp298
a(g36
I15
tp299
asba(iplayerTypes
tPlayer
p300
(dp301
g8
S'Serena Williams'
p302
sg10
I3
sg11
I1
sg12
S'f'
sg13
I189
sg14
(lp303
(g16
g17
tp304
a(g19
I46
tp305
a(g21
g22
tp306
a(g24
I38
tp307
a(g26
g27
tp308
a(g29
I54
tp309
a(g31
g32
tp310
a(g34
I51
tp311
a(g36
g37
tp312
asba(iplayerTypes
tPlayer
p313
(dp314
g8
S'Milos Raonic'
p315
sg10
I4
sg11
I1
sg12
S'm'
sg13
I230
sg14
(lp316
(g16
g17
tp317
a(g19
I62
tp318
a(g21
g22
tp319
a(g24
I59
tp320
a(g26
g27
tp321
a(g29
I61
tp322
a(g31
g32
tp323
a(g34
I48
tp324
a(g36
g37
tp325
asba(iplayerTypes
tPlayer
p326
(dp327
g8
S'Andy Murray'
p328
sg10
I5
sg11
I0
sg12
S'm'
sg13
I139
sg14
(lp329
(g16
I31
tp330
a(g19
g74
tp331
a(g21
I30
tp332
a(g24
g77
tp333
a(g26
I32
tp334
a(g29
g80
tp335
a(g31
I46
tp336
a(g34
g111
tp337
a(g36
g98
tp338
asbasba(iplayerTypes
fPlayer
p339
(dp340
g4
(lp341
(iplayerTypes
tPlayer
p342
(dp343
g8
S'Rafael Nadal'
p344
sg10
I5
sg11
I1
sg12
S'm'
sg13
I0
sg14
(lp345
(g16
g17
tp346
a(g19
S'(15)'
tp347
a(g21
g22
tp348
a(g24
S'(47)'
tp349
a(g26
g27
tp350
a(g29
S'(44)'
tp351
a(g31
g32
tp352
a(g34
S'(36)'
tp353
a(g36
g37
tp354
asba(iplayerTypes
tPlayer
p355
(dp356
g8
S'Marin Cilic'
p357
sg10
I1
sg11
I0
sg12
S'm'
sg13
I84
sg14
(lp358
(g16
I54
tp359
a(g19
g74
tp360
a(g21
I30
tp361
a(g24
g137
tp362
a(g26
g139
tp363
a(g29
g141
tp364
a(g31
g143
tp365
a(g34
g111
tp366
a(g36
g98
tp367
asba(iplayerTypes
tPlayer
p368
(dp369
g8
S'Novak Djokovic'
p370
sg10
I4
sg11
I0
sg12
S'm'
sg13
I105
sg14
(lp371
(g16
g17
tp372
a(g19
I50
tp373
a(g21
g22
tp374
a(g24
I55
tp375
a(g26
g139
tp376
a(g29
g141
tp377
a(g31
g143
tp378
a(g34
g111
tp379
a(g36
g98
tp380
asbasg52
I1061
sg8
S'Geoff'
p381
sg54
(lp382
(iplayerTypes
tPlayer
p383
(dp384
g8
S'Jo-Wilfried Tsonga'
p385
sg10
I1
sg11
I0
sg12
S'm'
sg13
I111
sg14
(lp386
(g16
S'(45)'
tp387
a(g19
g74
tp388
a(g21
S'(39)'
tp389
a(g24
g77
tp390
a(g26
I54
tp391
a(g29
g80
tp392
a(g31
I45
tp393
a(g34
g83
tp394
a(g36
I12
tp395
asba(iplayerTypes
tPlayer
p396
(dp397
g8
S'Milos Raonic'
p398
sg10
I2
sg11
I1
sg12
S'm'
sg13
I335
sg14
(lp399
(g16
g17
tp400
a(g19
I67
tp401
a(g21
g22
tp402
a(g24
I97
tp403
a(g26
g27
tp404
a(g29
I76
tp405
a(g31
g32
tp406
a(g34
I95
tp407
a(g36
g37
tp408
asba(iplayerTypes
tPlayer
p409
(dp410
g8
S'Andy Murray'
p411
sg10
I3
sg11
I0
sg12
S'm'
sg13
I180
sg14
(lp412
(g16
I45
tp413
a(g19
g74
tp414
a(g21
I49
tp415
a(g24
g77
tp416
a(g26
I45
tp417
a(g29
g80
tp418
a(g31
I41
tp419
a(g34
g111
tp420
a(g36
g98
tp421
asba(iplayerTypes
tPlayer
p422
(dp423
g8
S'Dominic Thiem'
p424
sg10
I4
sg11
I0
sg12
S'm'
sg13
I45
sg14
(lp425
(S'0/0/0'
S'(-)'
tp426
ag426
ag426
ag426
ag426
ag426
a(g31
g32
tp427
a(g34
I45
tp428
a(g36
g98
tp429
asba(iplayerTypes
tPlayer
p430
(dp431
g8
S'Stan Wawrinka'
p432
sg10
I5
sg11
I1
sg12
S'm'
sg13
I201
sg14
(lp433
(g16
I70
tp434
a(g19
g74
tp435
a(g21
I40
tp436
a(g24
g77
tp437
a(g26
I40
tp438
a(g29
g80
tp439
a(g31
I14
tp440
a(g34
g83
tp441
a(g36
I37
tp442
asbasba(iplayerTypes
fPlayer
p443
(dp444
g4
(lp445
(iplayerTypes
tPlayer
p446
(dp447
g8
S'Gael Monfils'
p448
sg10
I2
sg11
I0
sg12
S'm'
sg13
I0
sg14
(lp449
(g16
g17
tp450
a(g19
S'(47)'
tp451
a(g21
g22
tp452
a(g24
S'(42)'
tp453
a(g26
g27
tp454
a(g29
S'(25)'
tp455
a(g31
g32
tp456
a(g34
S'(40)'
tp457
a(g36
g98
tp458
asba(iplayerTypes
tPlayer
p459
(dp460
g8
S'John Isner'
p461
sg10
I1
sg11
I0
sg12
S'm'
sg13
I168
sg14
(lp462
(g16
I81
tp463
a(g19
g74
tp464
a(g21
I87
tp465
a(g24
g137
tp466
a(g26
g139
tp467
a(g29
g141
tp468
a(g31
g143
tp469
a(g34
g111
tp470
a(g36
g98
tp471
asba(iplayerTypes
tPlayer
p472
(dp473
g8
S'Novak Djokovic'
p474
sg10
I3
sg11
I0
sg12
S'm'
sg13
I88
sg14
(lp475
(g16
g17
tp476
a(g19
I50
tp477
a(g21
g22
tp478
a(g24
I38
tp479
a(g26
g139
tp480
a(g29
g141
tp481
a(g31
g143
tp482
a(g34
g111
tp483
a(g36
g98
tp484
asbasg52
I1016
sg8
S'Jack'
p485
sg54
(lp486
(iplayerTypes
tPlayer
p487
(dp488
g8
S'Dominic Thiem'
p489
sg10
I1
sg11
I0
sg12
S'm'
sg13
I45
sg14
(lp490
(g16
g17
tp491
a(g19
S'(47)'
tp492
a(g21
g22
tp493
a(g24
S'(24)'
tp494
a(g26
g27
tp495
a(g29
I21
tp496
a(g31
g32
tp497
a(g34
I24
tp498
a(g36
g98
tp499
asba(iplayerTypes
tPlayer
p500
(dp501
g8
S'Stan Wawrinka'
p502
sg10
I2
sg11
I1
sg12
S'm'
sg13
I307
sg14
(lp503
(g16
I77
tp504
a(g19
g74
tp505
a(g21
I67
tp506
a(g24
g77
tp507
a(g26
I44
tp508
a(g29
g80
tp509
a(g31
I65
tp510
a(g34
g83
tp511
a(g36
I54
tp512
asba(iplayerTypes
tPlayer
p513
(dp514
g8
S'Kei Nishikori'
p515
sg10
I3
sg11
I0
sg12
S'm'
sg13
I30
sg14
(lp516
(S'0/0/0'
S'(-)'
tp517
ag517
ag517
ag517
ag517
ag517
a(g31
I30
tp518
a(g34
g111
tp519
a(g36
g98
tp520
asba(iplayerTypes
tPlayer
p521
(dp522
g8
S'Andy Murray'
p523
sg10
I4
sg11
I0
sg12
S'm'
sg13
I197
sg14
(lp524
(g16
I43
tp525
a(g19
g74
tp526
a(g21
I68
tp527
a(g24
g77
tp528
a(g26
I50
tp529
a(g29
g80
tp530
a(g31
I36
tp531
a(g34
g111
tp532
a(g36
g98
tp533
asba(iplayerTypes
tPlayer
p534
(dp535
g8
S'Roger Federer'
p536
sg10
I5
sg11
I1
sg12
S'm'
sg13
I181
sg14
(lp537
(g16
I31
tp538
a(g19
g74
tp539
a(g21
I37
tp540
a(g24
g77
tp541
a(g26
I20
tp542
a(g29
g80
tp543
a(g31
I61
tp544
a(g34
g83
tp545
a(g36
I32
tp546
asbasba.