(lp1
(iplayerTypes
fPlayer
p2
(dp3
S'bench'
p4
(lp5
(iplayerTypes
tPlayer
p6
(dp7
S'name'
p8
S'Tomas Berdych'
p9
sS'attribute'
p10
I2
sS'alive'
p11
I1
sS'sex'
p12
S'm'
sS'points'
p13
I0
sS'history'
p14
(lp15
(S'1/16/2017'
p16
S'(10)'
tp17
a(S'1/17/2017'
p18
S'DNP'
p19
tp20
a(S'1/18/2017'
p21
S'(43)'
tp22
a(S'1/19/2017'
p23
S'DNP'
p24
tp25
asba(iplayerTypes
tPlayer
p26
(dp27
g8
S'Novak Djokovic'
p28
sg10
I2
sg11
I0
sg12
S'm'
sg13
I0
sg14
(lp29
(g16
S'DNP'
p30
tp31
a(g18
S'(14)'
tp32
a(g21
S'DNP'
p33
tp34
a(g23
S'(64)'
tp35
asbasS'total'
p36
I637
sg8
S'Steve'
p37
sS'team'
p38
(lp39
(iplayerTypes
tPlayer
p40
(dp41
g8
S'Ivo Karlovic'
p42
sg10
I1
sg11
I1
sg12
S'm'
sg13
I225
sg14
(lp43
(g16
g30
tp44
a(g18
I189
tp45
a(g21
g33
tp46
a(g23
I36
tp47
asba(iplayerTypes
tPlayer
p48
(dp49
g8
S'Marin Cilic'
p50
sg10
I2
sg11
I0
sg12
S'm'
sg13
I146
sg14
(lp51
(g16
I105
tp52
a(g18
g19
tp53
a(g21
I41
tp54
a(g23
S'OUT'
p55
tp56
asba(iplayerTypes
tPlayer
p57
(dp58
g8
S'Serena Williams'
p59
sg10
I3
sg11
I1
sg12
S'f'
sg13
I84
sg14
(lp60
(g16
g30
tp61
a(g18
I46
tp62
a(g21
g33
tp63
a(g23
I38
tp64
asba(iplayerTypes
tPlayer
p65
(dp66
g8
S'Milos Raonic'
p67
sg10
I4
sg11
I1
sg12
S'm'
sg13
I121
sg14
(lp68
(g16
g30
tp69
a(g18
I62
tp70
a(g21
g33
tp71
a(g23
I59
tp72
asba(iplayerTypes
tPlayer
p73
(dp74
g8
S'Andy Murray'
p75
sg10
I5
sg11
I1
sg12
S'm'
sg13
I61
sg14
(lp76
(g16
I31
tp77
a(g18
g19
tp78
a(g21
I30
tp79
a(g23
g24
tp80
asbasba(iplayerTypes
fPlayer
p81
(dp82
g4
(lp83
(iplayerTypes
tPlayer
p84
(dp85
g8
S'Andy Murray'
p86
sg10
I2
sg11
I1
sg12
S'm'
sg13
I0
sg14
(lp87
(g16
S'(23)'
tp88
a(g18
g19
tp89
a(g21
S'(36)'
tp90
a(g23
g24
tp91
asba(iplayerTypes
tPlayer
p92
(dp93
g8
S'Nick Kyrgios'
p94
sg10
I1
sg11
I0
sg12
S'm'
sg13
I15
sg14
(lp95
(g16
I15
tp96
a(g18
g19
tp97
a(g21
S'(60)'
tp98
a(g23
g55
tp99
asbasg36
I589
sg8
S'Ben'
p100
sg38
(lp101
(iplayerTypes
tPlayer
p102
(dp103
g8
S'Roger Federer'
p104
sg10
I1
sg11
I1
sg12
S'm'
sg13
I45
sg14
(lp105
(g16
S'(54)'
tp106
a(g18
g19
tp107
a(g21
I45
tp108
a(g23
g24
tp109
asba(iplayerTypes
tPlayer
p110
(dp111
g8
S'John Isner'
p112
sg10
I2
sg11
I0
sg12
S'm'
sg13
I229
sg14
(lp113
(g16
I98
tp114
a(g18
g19
tp115
a(g21
I131
tp116
a(g23
g55
tp117
asba(iplayerTypes
tPlayer
p118
(dp119
g8
S'Angelique Kerber'
p120
sg10
I3
sg11
I1
sg12
S'f'
sg13
I90
sg14
(lp121
(g16
I43
tp122
a(g18
g19
tp123
a(g21
I47
tp124
a(g23
g24
tp125
asba(iplayerTypes
tPlayer
p126
(dp127
g8
S'Stan Wawrinka'
p128
sg10
I4
sg11
I1
sg12
S'm'
sg13
I103
sg14
(lp129
(g16
I47
tp130
a(g18
g19
tp131
a(g21
I56
tp132
a(g23
g24
tp133
asba(iplayerTypes
tPlayer
p134
(dp135
g8
S'Novak Djokovic'
p136
sg10
I5
sg11
I0
sg12
S'm'
sg13
I107
sg14
(lp137
(g16
g30
tp138
a(g18
I39
tp139
a(g21
g33
tp140
a(g23
I68
tp141
asbasba(iplayerTypes
fPlayer
p142
(dp143
g4
(lp144
(iplayerTypes
tPlayer
p145
(dp146
g8
S'Gael Monfils'
p147
sg10
I2
sg11
I1
sg12
S'm'
sg13
I0
sg14
(lp148
(g16
g30
tp149
a(g18
S'(47)'
tp150
a(g21
g33
tp151
a(g23
S'(42)'
tp152
asba(iplayerTypes
tPlayer
p153
(dp154
g8
S'Dominic Thiem'
p155
sg10
I1
sg11
I1
sg12
S'm'
sg13
I0
sg14
(lp156
(g16
g30
tp157
a(g18
S'(47)'
tp158
a(g21
g33
tp159
a(g23
S'(24)'
tp160
asbasg36
I579
sg8
S'Jack'
p161
sg38
(lp162
(iplayerTypes
tPlayer
p163
(dp164
g8
S'John Isner'
p165
sg10
I1
sg11
I0
sg12
S'm'
sg13
I168
sg14
(lp166
(g16
I81
tp167
a(g18
g19
tp168
a(g21
I87
tp169
a(g23
g55
tp170
asba(iplayerTypes
tPlayer
p171
(dp172
g8
S'Stan Wawrinka'
p173
sg10
I2
sg11
I1
sg12
S'm'
sg13
I144
sg14
(lp174
(g16
I77
tp175
a(g18
g19
tp176
a(g21
I67
tp177
a(g23
g24
tp178
asba(iplayerTypes
tPlayer
p179
(dp180
g8
S'Novak Djokovic'
p181
sg10
I3
sg11
I0
sg12
S'm'
sg13
I88
sg14
(lp182
(g16
g30
tp183
a(g18
I50
tp184
a(g21
g33
tp185
a(g23
I38
tp186
asba(iplayerTypes
tPlayer
p187
(dp188
g8
S'Andy Murray'
p189
sg10
I4
sg11
I1
sg12
S'm'
sg13
I111
sg14
(lp190
(g16
I43
tp191
a(g18
g19
tp192
a(g21
I68
tp193
a(g23
g24
tp194
asba(iplayerTypes
tPlayer
p195
(dp196
g8
S'Roger Federer'
p197
sg10
I5
sg11
I1
sg12
S'm'
sg13
I68
sg14
(lp198
(g16
I31
tp199
a(g18
g19
tp200
a(g21
I37
tp201
a(g23
g24
tp202
asbasba(iplayerTypes
fPlayer
p203
(dp204
g4
(lp205
(iplayerTypes
tPlayer
p206
(dp207
g8
S'Rafael Nadal'
p208
sg10
I5
sg11
I1
sg12
S'm'
sg13
I0
sg14
(lp209
(g16
g30
tp210
a(g18
S'(15)'
tp211
a(g21
g33
tp212
a(g23
S'(47)'
tp213
asba(iplayerTypes
tPlayer
p214
(dp215
g8
S'Jo-Wilfried Tsonga'
p216
sg10
I1
sg11
I1
sg12
S'm'
sg13
I0
sg14
(lp217
(g16
S'(45)'
tp218
a(g18
g19
tp219
a(g21
S'(39)'
tp220
a(g23
g24
tp221
asbasg36
I557
sg8
S'Geoff'
p222
sg38
(lp223
(iplayerTypes
tPlayer
p224
(dp225
g8
S'Marin Cilic'
p226
sg10
I1
sg11
I0
sg12
S'm'
sg13
I84
sg14
(lp227
(g16
I54
tp228
a(g18
g19
tp229
a(g21
I30
tp230
a(g23
g55
tp231
asba(iplayerTypes
tPlayer
p232
(dp233
g8
S'Milos Raonic'
p234
sg10
I2
sg11
I1
sg12
S'm'
sg13
I164
sg14
(lp235
(g16
g30
tp236
a(g18
I67
tp237
a(g21
g33
tp238
a(g23
I97
tp239
asba(iplayerTypes
tPlayer
p240
(dp241
g8
S'Andy Murray'
p242
sg10
I3
sg11
I1
sg12
S'm'
sg13
I94
sg14
(lp243
(g16
I45
tp244
a(g18
g19
tp245
a(g21
I49
tp246
a(g23
g24
tp247
asba(iplayerTypes
tPlayer
p248
(dp249
g8
S'Novak Djokovic'
p250
sg10
I4
sg11
I0
sg12
S'm'
sg13
I105
sg14
(lp251
(g16
g30
tp252
a(g18
I50
tp253
a(g21
g33
tp254
a(g23
I55
tp255
asba(iplayerTypes
tPlayer
p256
(dp257
g8
S'Stan Wawrinka'
p258
sg10
I5
sg11
I1
sg12
S'm'
sg13
I110
sg14
(lp259
(g16
I70
tp260
a(g18
g19
tp261
a(g21
I40
tp262
a(g23
g24
tp263
asbasba(iplayerTypes
fPlayer
p264
(dp265
g4
(lp266
(iplayerTypes
tPlayer
p267
(dp268
g8
S'Dominic Thiem'
p269
sg10
I3
sg11
I1
sg12
S'm'
sg13
I0
sg14
(lp270
(g16
g30
tp271
a(g18
S'(39)'
tp272
a(g21
g33
tp273
a(g23
S'(43)'
tp274
asba(iplayerTypes
tPlayer
p275
(dp276
g8
S'Grigor Dimitrov'
p277
sg10
I4
sg11
I1
sg12
S'm'
sg13
I62
sg14
(lp278
(g16
g30
tp279
a(g18
I62
tp280
a(g21
g33
tp281
a(g23
S'(54)'
tp282
asbasg36
I526
sg8
S'Santay'
p283
sg38
(lp284
(iplayerTypes
tPlayer
p285
(dp286
g8
S'Milos Raonic'
p287
sg10
I1
sg11
I1
sg12
S'm'
sg13
I93
sg14
(lp288
(g16
g30
tp289
a(g18
I39
tp290
a(g21
g33
tp291
a(g23
I54
tp292
asba(iplayerTypes
tPlayer
p293
(dp294
g8
S'Roger Federer'
p295
sg10
I2
sg11
I1
sg12
S'm'
sg13
I111
sg14
(lp296
(g16
I56
tp297
a(g18
g19
tp298
a(g21
I55
tp299
a(g23
g24
tp300
asba(iplayerTypes
tPlayer
p301
(dp302
g8
S'Rafael Nadal'
p303
sg10
I3
sg11
I1
sg12
S'm'
sg13
I88
sg14
(lp304
(g16
g30
tp305
a(g18
I38
tp306
a(g21
g33
tp307
a(g23
I50
tp308
asba(iplayerTypes
tPlayer
p309
(dp310
g8
S'Angelique Kerber'
p311
sg10
I4
sg11
I1
sg12
S'f'
sg13
I51
sg14
(lp312
(g16
S'(64)'
tp313
a(g18
g19
tp314
a(g21
I51
tp315
a(g23
g24
tp316
asba(iplayerTypes
tPlayer
p317
(dp318
g8
S'Kei Nishikori'
p319
sg10
I5
sg11
I1
sg12
S'm'
sg13
I121
sg14
(lp320
(g16
I65
tp321
a(g18
g19
tp322
a(g21
I56
tp323
a(g23
g24
tp324
asbasba.