(lp1
(iplayerTypes
fPlayer
p2
(dp3
S'bench'
p4
(lp5
(iplayerTypes
tPlayer
p6
(dp7
S'name'
p8
S'Nick Kyrgios'
p9
sS'attribute'
p10
I1
sS'alive'
p11
I0
sS'sex'
p12
S'm'
sS'points'
p13
I15
sS'history'
p14
(lp15
(S'1/16/2017'
p16
I15
tp17
a(S'1/17/2017'
p18
S'DNP'
p19
tp20
a(S'1/18/2017'
p21
S'(60)'
tp22
a(S'1/19/2017'
p23
S'OUT'
p24
tp25
a(S'1/20/2017'
p26
S'OUT'
p27
tp28
asba(iplayerTypes
tPlayer
p29
(dp30
g8
S'John Isner'
p31
sg10
I2
sg11
I0
sg12
S'm'
sg13
I229
sg14
(lp32
(g16
I98
tp33
a(g18
g19
tp34
a(g21
I131
tp35
a(g23
g24
tp36
a(g26
g27
tp37
asbasS'total'
p38
I770
sg8
S'Ben'
p39
sS'team'
p40
(lp41
(iplayerTypes
tPlayer
p42
(dp43
g8
S'Roger Federer'
p44
sg10
I1
sg11
I1
sg12
S'm'
sg13
I63
sg14
(lp45
(g16
S'(54)'
tp46
a(g18
g19
tp47
a(g21
I45
tp48
a(g23
S'DNP'
p49
tp50
a(g26
I18
tp51
asba(iplayerTypes
tPlayer
p52
(dp53
g8
S'Andy Murray'
p54
sg10
I2
sg11
I1
sg12
S'm'
sg13
I58
sg14
(lp55
(g16
S'(23)'
tp56
a(g18
g19
tp57
a(g21
S'(36)'
tp58
a(g23
g49
tp59
a(g26
I58
tp60
asba(iplayerTypes
tPlayer
p61
(dp62
g8
S'Angelique Kerber'
p63
sg10
I3
sg11
I1
sg12
S'f'
sg13
I143
sg14
(lp64
(g16
I43
tp65
a(g18
g19
tp66
a(g21
I47
tp67
a(g23
g49
tp68
a(g26
I53
tp69
asba(iplayerTypes
tPlayer
p70
(dp71
g8
S'Stan Wawrinka'
p72
sg10
I4
sg11
I1
sg12
S'm'
sg13
I155
sg14
(lp73
(g16
I47
tp74
a(g18
g19
tp75
a(g21
I56
tp76
a(g23
g49
tp77
a(g26
I52
tp78
asba(iplayerTypes
tPlayer
p79
(dp80
g8
S'Novak Djokovic'
p81
sg10
I5
sg11
I0
sg12
S'm'
sg13
I107
sg14
(lp82
(g16
S'DNP'
p83
tp84
a(g18
I39
tp85
a(g21
S'DNP'
p86
tp87
a(g23
I68
tp88
a(g26
g27
tp89
asbasba(iplayerTypes
fPlayer
p90
(dp91
g4
(lp92
(iplayerTypes
tPlayer
p93
(dp94
g8
S'Novak Djokovic'
p95
sg10
I2
sg11
I0
sg12
S'm'
sg13
I0
sg14
(lp96
(g16
g83
tp97
a(g18
S'(14)'
tp98
a(g21
g86
tp99
a(g23
S'(64)'
tp100
a(g26
g27
tp101
asba(iplayerTypes
tPlayer
p102
(dp103
g8
S'Marin Cilic'
p104
sg10
I2
sg11
I0
sg12
S'm'
sg13
I146
sg14
(lp105
(g16
I105
tp106
a(g18
g19
tp107
a(g21
I41
tp108
a(g23
g24
tp109
a(g26
g27
tp110
asbasg38
I707
sg8
S'Steve'
p111
sg40
(lp112
(iplayerTypes
tPlayer
p113
(dp114
g8
S'Ivo Karlovic'
p115
sg10
I1
sg11
I1
sg12
S'm'
sg13
I225
sg14
(lp116
(g16
g83
tp117
a(g18
I189
tp118
a(g21
g86
tp119
a(g23
I36
tp120
a(g26
S'DNP'
p121
tp122
asba(iplayerTypes
tPlayer
p123
(dp124
g8
S'Tomas Berdych'
p125
sg10
I2
sg11
I0
sg12
S'm'
sg13
I38
sg14
(lp126
(g16
S'(10)'
tp127
a(g18
g19
tp128
a(g21
S'(43)'
tp129
a(g23
g49
tp130
a(g26
I38
tp131
asba(iplayerTypes
tPlayer
p132
(dp133
g8
S'Serena Williams'
p134
sg10
I3
sg11
I1
sg12
S'f'
sg13
I84
sg14
(lp135
(g16
g83
tp136
a(g18
I46
tp137
a(g21
g86
tp138
a(g23
I38
tp139
a(g26
g121
tp140
asba(iplayerTypes
tPlayer
p141
(dp142
g8
S'Milos Raonic'
p143
sg10
I4
sg11
I1
sg12
S'm'
sg13
I121
sg14
(lp144
(g16
g83
tp145
a(g18
I62
tp146
a(g21
g86
tp147
a(g23
I59
tp148
a(g26
g121
tp149
asba(iplayerTypes
tPlayer
p150
(dp151
g8
S'Andy Murray'
p152
sg10
I5
sg11
I1
sg12
S'm'
sg13
I93
sg14
(lp153
(g16
I31
tp154
a(g18
g19
tp155
a(g21
I30
tp156
a(g23
g49
tp157
a(g26
I32
tp158
asbasba(iplayerTypes
fPlayer
p159
(dp160
g4
(lp161
(iplayerTypes
tPlayer
p162
(dp163
g8
S'Rafael Nadal'
p164
sg10
I5
sg11
I1
sg12
S'm'
sg13
I0
sg14
(lp165
(g16
g83
tp166
a(g18
S'(15)'
tp167
a(g21
g86
tp168
a(g23
S'(47)'
tp169
a(g26
g121
tp170
asba(iplayerTypes
tPlayer
p171
(dp172
g8
S'Marin Cilic'
p173
sg10
I1
sg11
I0
sg12
S'm'
sg13
I84
sg14
(lp174
(g16
I54
tp175
a(g18
g19
tp176
a(g21
I30
tp177
a(g23
g24
tp178
a(g26
g27
tp179
asbasg38
I696
sg8
S'Geoff'
p180
sg40
(lp181
(iplayerTypes
tPlayer
p182
(dp183
g8
S'Jo-Wilfried Tsonga'
p184
sg10
I1
sg11
I1
sg12
S'm'
sg13
I54
sg14
(lp185
(g16
S'(45)'
tp186
a(g18
g19
tp187
a(g21
S'(39)'
tp188
a(g23
g49
tp189
a(g26
I54
tp190
asba(iplayerTypes
tPlayer
p191
(dp192
g8
S'Milos Raonic'
p193
sg10
I2
sg11
I1
sg12
S'm'
sg13
I164
sg14
(lp194
(g16
g83
tp195
a(g18
I67
tp196
a(g21
g86
tp197
a(g23
I97
tp198
a(g26
g121
tp199
asba(iplayerTypes
tPlayer
p200
(dp201
g8
S'Andy Murray'
p202
sg10
I3
sg11
I1
sg12
S'm'
sg13
I139
sg14
(lp203
(g16
I45
tp204
a(g18
g19
tp205
a(g21
I49
tp206
a(g23
g49
tp207
a(g26
I45
tp208
asba(iplayerTypes
tPlayer
p209
(dp210
g8
S'Novak Djokovic'
p211
sg10
I4
sg11
I0
sg12
S'm'
sg13
I105
sg14
(lp212
(g16
g83
tp213
a(g18
I50
tp214
a(g21
g86
tp215
a(g23
I55
tp216
a(g26
g27
tp217
asba(iplayerTypes
tPlayer
p218
(dp219
g8
S'Stan Wawrinka'
p220
sg10
I5
sg11
I1
sg12
S'm'
sg13
I150
sg14
(lp221
(g16
I70
tp222
a(g18
g19
tp223
a(g21
I40
tp224
a(g23
g49
tp225
a(g26
I40
tp226
asbasba(iplayerTypes
fPlayer
p227
(dp228
g4
(lp229
(iplayerTypes
tPlayer
p230
(dp231
g8
S'Gael Monfils'
p232
sg10
I2
sg11
I1
sg12
S'm'
sg13
I0
sg14
(lp233
(g16
g83
tp234
a(g18
S'(47)'
tp235
a(g21
g86
tp236
a(g23
S'(42)'
tp237
a(g26
g121
tp238
asba(iplayerTypes
tPlayer
p239
(dp240
g8
S'John Isner'
p241
sg10
I1
sg11
I0
sg12
S'm'
sg13
I168
sg14
(lp242
(g16
I81
tp243
a(g18
g19
tp244
a(g21
I87
tp245
a(g23
g24
tp246
a(g26
g27
tp247
asbasg38
I693
sg8
S'Jack'
p248
sg40
(lp249
(iplayerTypes
tPlayer
p250
(dp251
g8
S'Dominic Thiem'
p252
sg10
I1
sg11
I1
sg12
S'm'
sg13
I0
sg14
(lp253
(g16
g83
tp254
a(g18
S'(47)'
tp255
a(g21
g86
tp256
a(g23
S'(24)'
tp257
a(g26
g121
tp258
asba(iplayerTypes
tPlayer
p259
(dp260
g8
S'Stan Wawrinka'
p261
sg10
I2
sg11
I1
sg12
S'm'
sg13
I188
sg14
(lp262
(g16
I77
tp263
a(g18
g19
tp264
a(g21
I67
tp265
a(g23
g49
tp266
a(g26
I44
tp267
asba(iplayerTypes
tPlayer
p268
(dp269
g8
S'Novak Djokovic'
p270
sg10
I3
sg11
I0
sg12
S'm'
sg13
I88
sg14
(lp271
(g16
g83
tp272
a(g18
I50
tp273
a(g21
g86
tp274
a(g23
I38
tp275
a(g26
g27
tp276
asba(iplayerTypes
tPlayer
p277
(dp278
g8
S'Andy Murray'
p279
sg10
I4
sg11
I1
sg12
S'm'
sg13
I161
sg14
(lp280
(g16
I43
tp281
a(g18
g19
tp282
a(g21
I68
tp283
a(g23
g49
tp284
a(g26
I50
tp285
asba(iplayerTypes
tPlayer
p286
(dp287
g8
S'Roger Federer'
p288
sg10
I5
sg11
I1
sg12
S'm'
sg13
I88
sg14
(lp289
(g16
I31
tp290
a(g18
g19
tp291
a(g21
I37
tp292
a(g23
g49
tp293
a(g26
I20
tp294
asbasba(iplayerTypes
fPlayer
p295
(dp296
g4
(lp297
(iplayerTypes
tPlayer
p298
(dp299
g8
S'Grigor Dimitrov'
p300
sg10
I4
sg11
I1
sg12
S'm'
sg13
I62
sg14
(lp301
(g16
g83
tp302
a(g18
I62
tp303
a(g21
g86
tp304
a(g23
S'(54)'
tp305
a(g26
g121
tp306
asba(iplayerTypes
tPlayer
p307
(dp308
g8
S'Rafael Nadal'
p309
sg10
I3
sg11
I1
sg12
S'm'
sg13
I88
sg14
(lp310
(g16
g83
tp311
a(g18
I38
tp312
a(g21
g86
tp313
a(g23
I50
tp314
a(g26
g121
tp315
asbasg38
I672
sg8
S'Santay'
p316
sg40
(lp317
(iplayerTypes
tPlayer
p318
(dp319
g8
S'Milos Raonic'
p320
sg10
I1
sg11
I1
sg12
S'm'
sg13
I93
sg14
(lp321
(g16
g83
tp322
a(g18
I39
tp323
a(g21
g86
tp324
a(g23
I54
tp325
a(g26
g121
tp326
asba(iplayerTypes
tPlayer
p327
(dp328
g8
S'Roger Federer'
p329
sg10
I2
sg11
I1
sg12
S'm'
sg13
I174
sg14
(lp330
(g16
I56
tp331
a(g18
g19
tp332
a(g21
I55
tp333
a(g23
g49
tp334
a(g26
I63
tp335
asba(iplayerTypes
tPlayer
p336
(dp337
g8
S'Dominic Thiem'
p338
sg10
I3
sg11
I1
sg12
S'm'
sg13
I0
sg14
(lp339
(g16
g83
tp340
a(g18
S'(39)'
tp341
a(g21
g86
tp342
a(g23
S'(43)'
tp343
a(g26
g121
tp344
asba(iplayerTypes
tPlayer
p345
(dp346
g8
S'Angelique Kerber'
p347
sg10
I4
sg11
I1
sg12
S'f'
sg13
I112
sg14
(lp348
(g16
S'(64)'
tp349
a(g18
g19
tp350
a(g21
I51
tp351
a(g23
g49
tp352
a(g26
I61
tp353
asba(iplayerTypes
tPlayer
p354
(dp355
g8
S'Kei Nishikori'
p356
sg10
I5
sg11
I1
sg12
S'm'
sg13
I143
sg14
(lp357
(g16
I65
tp358
a(g18
g19
tp359
a(g21
I56
tp360
a(g23
g49
tp361
a(g26
I22
tp362
asbasba.