(lp1
(iplayerTypes
fPlayer
p2
(dp3
S'bench'
p4
(lp5
(iplayerTypes
tPlayer
p6
(dp7
S'name'
p8
S'Grigor Dimitrov'
p9
sS'attribute'
p10
I3
sS'alive'
p11
I1
sS'sex'
p12
S'm'
sS'points'
p13
I0
sS'history'
p14
(lp15
(S'1/1/2017'
p16
S'-'
tp17
a(g16
I0
tp18
asba(iplayerTypes
tPlayer
p19
(dp20
g8
S'Stanislas Wawrinka'
p21
sg10
I2
sg11
I1
sg12
S'm'
sg13
I0
sg14
(lp22
(g16
S'-'
tp23
a(g16
I0
tp24
asbasS'total'
p25
I0
sg8
S'Ben'
p26
sS'team'
p27
(lp28
(iplayerTypes
tPlayer
p29
(dp30
g8
S'Bernard Tomic'
p31
sg10
I1
sg11
I1
sg12
S'm'
sg13
I0
sg14
(lp32
(g16
S'-'
tp33
a(g16
I0
tp34
asba(iplayerTypes
tPlayer
p35
(dp36
g8
S'Nicolas Mahut'
p37
sg10
I2
sg11
I1
sg12
S'm'
sg13
I0
sg14
(lp38
(g16
S'-'
tp39
a(g16
I0
tp40
asba(iplayerTypes
tPlayer
p41
(dp42
g8
S'Stephane Robert'
p43
sg10
I3
sg11
I1
sg12
S'm'
sg13
I0
sg14
(lp44
(g16
S'-'
tp45
a(g16
I0
tp46
asba(iplayerTypes
tPlayer
p47
(dp48
g8
S'Milos Raonic'
p49
sg10
I4
sg11
I1
sg12
S'm'
sg13
I0
sg14
(lp50
(g16
S'-'
tp51
a(g16
I0
tp52
asba(iplayerTypes
tPlayer
p53
(dp54
g8
S'Rafael Nadal'
p55
sg10
I5
sg11
I1
sg12
S'm'
sg13
I0
sg14
(lp56
(g16
S'-'
tp57
a(g16
I0
tp58
asbasba.